	.cpu cortex-m7
	.eabi_attribute 28, 1
	.eabi_attribute 20, 1
	.eabi_attribute 21, 1
	.eabi_attribute 23, 3
	.eabi_attribute 24, 1
	.eabi_attribute 25, 1
	.eabi_attribute 26, 1
	.eabi_attribute 30, 6
	.eabi_attribute 34, 1
	.eabi_attribute 18, 4
	.file	"fsl_lpuart.c"
	.text
.Ltext0:
	.section	.text.__NVIC_EnableIRQ,"ax",%progbits
	.align	1
	.syntax unified
	.thumb
	.thumb_func
	.fpu fpv5-d16
	.type	__NVIC_EnableIRQ, %function
__NVIC_EnableIRQ:
.LFB104:
	.file 1 "./CMSIS_4/CMSIS/Include/core_cm7.h"
	.loc 1 1886 1
	@ args = 0, pretend = 0, frame = 8
	@ frame_needed = 0, uses_anonymous_args = 0
	@ link register save eliminated.
	sub	sp, sp, #8
.LCFI0:
	mov	r3, r0
	strh	r3, [sp, #6]	@ movhi
	.loc 1 1887 6
	ldrsh	r3, [sp, #6]
	cmp	r3, #0
	blt	.L3
	.loc 1 1889 81
	ldrh	r3, [sp, #6]
	and	r2, r3, #31
	.loc 1 1889 9
	ldr	r1, .L4
	.loc 1 1889 18
	ldrsh	r3, [sp, #6]
	.loc 1 1889 34
	lsrs	r3, r3, #5
	.loc 1 1889 60
	movs	r0, #1
	lsl	r2, r0, r2
	.loc 1 1889 43
	str	r2, [r1, r3, lsl #2]
.L3:
	.loc 1 1891 1
	nop
	add	sp, sp, #8
.LCFI1:
	@ sp needed
	bx	lr
.L5:
	.align	2
.L4:
	.word	-536813312
.LFE104:
	.size	__NVIC_EnableIRQ, .-__NVIC_EnableIRQ
	.section .rodata
	.align	2
.LC0:
	.ascii	"C:\\Users\\cchhu\\Documents\\SEGGER Embedded Studio"
	.ascii	" for ARM Projects\\RT105x_W25Q\\drivers\\fsl_clock."
	.ascii	"h\000"
	.align	2
.LC1:
	.ascii	"index <= 6\000"
	.section	.text.CLOCK_ControlGate,"ax",%progbits
	.align	1
	.syntax unified
	.thumb
	.thumb_func
	.fpu fpv5-d16
	.type	CLOCK_ControlGate, %function
CLOCK_ControlGate:
.LFB145:
	.file 2 "C:\\Users\\cchhu\\Documents\\SEGGER Embedded Studio for ARM Projects\\RT105x_W25Q\\drivers\\fsl_clock.h"
	.loc 2 956 1
	@ args = 0, pretend = 0, frame = 24
	@ frame_needed = 0, uses_anonymous_args = 0
	push	{lr}
.LCFI2:
	sub	sp, sp, #28
.LCFI3:
	mov	r3, r0
	mov	r2, r1
	strh	r3, [sp, #6]	@ movhi
	mov	r3, r2
	strb	r3, [sp, #5]
	.loc 2 957 23
	ldrsh	r3, [sp, #6]
	.loc 2 957 14
	lsrs	r3, r3, #8
	str	r3, [sp, #20]
	.loc 2 958 39
	ldrh	r3, [sp, #6]
	.loc 2 958 14
	and	r3, r3, #31
	str	r3, [sp, #16]
	.loc 2 961 5
	ldr	r3, [sp, #20]
	cmp	r3, #6
	bls	.L7
	.loc 2 961 5 is_stmt 0 discriminator 1
	movw	r2, #961
	ldr	r1, .L8
	ldr	r0, .L8+4
	bl	__assert
.L7:
	.loc 2 963 46 is_stmt 1
	ldr	r3, [sp, #20]
	lsls	r2, r3, #2
	.loc 2 963 9
	ldr	r3, .L8+8
	add	r3, r3, r2
	str	r3, [sp, #12]
	.loc 2 964 14
	ldr	r3, [sp, #12]
	ldr	r2, [r3]
	.loc 2 964 27
	movs	r1, #3
	ldr	r3, [sp, #16]
	lsl	r3, r1, r3
	.loc 2 964 22
	mvns	r3, r3
	.loc 2 964 20
	ands	r2, r2, r3
	.loc 2 964 42
	ldrb	r1, [sp, #5]	@ zero_extendqisi2
	.loc 2 964 59
	ldr	r3, [sp, #16]
	lsl	r3, r1, r3
	.loc 2 964 38
	orrs	r2, r2, r3
	.loc 2 964 10
	ldr	r3, [sp, #12]
	str	r2, [r3]
	.loc 2 965 1
	nop
	add	sp, sp, #28
.LCFI4:
	@ sp needed
	ldr	pc, [sp], #4
.L9:
	.align	2
.L8:
	.word	.LC0
	.word	.LC1
	.word	1074774120
.LFE145:
	.size	CLOCK_ControlGate, .-CLOCK_ControlGate
	.section	.text.CLOCK_EnableClock,"ax",%progbits
	.align	1
	.syntax unified
	.thumb
	.thumb_func
	.fpu fpv5-d16
	.type	CLOCK_EnableClock, %function
CLOCK_EnableClock:
.LFB146:
	.loc 2 973 1
	@ args = 0, pretend = 0, frame = 8
	@ frame_needed = 0, uses_anonymous_args = 0
	push	{lr}
.LCFI5:
	sub	sp, sp, #12
.LCFI6:
	mov	r3, r0
	strh	r3, [sp, #6]	@ movhi
	.loc 2 974 5
	ldrsh	r3, [sp, #6]
	movs	r1, #3
	mov	r0, r3
	bl	CLOCK_ControlGate
	.loc 2 975 1
	nop
	add	sp, sp, #12
.LCFI7:
	@ sp needed
	ldr	pc, [sp], #4
.LFE146:
	.size	CLOCK_EnableClock, .-CLOCK_EnableClock
	.section	.text.CLOCK_DisableClock,"ax",%progbits
	.align	1
	.syntax unified
	.thumb
	.thumb_func
	.fpu fpv5-d16
	.type	CLOCK_DisableClock, %function
CLOCK_DisableClock:
.LFB147:
	.loc 2 983 1
	@ args = 0, pretend = 0, frame = 8
	@ frame_needed = 0, uses_anonymous_args = 0
	push	{lr}
.LCFI8:
	sub	sp, sp, #12
.LCFI9:
	mov	r3, r0
	strh	r3, [sp, #6]	@ movhi
	.loc 2 984 5
	ldrsh	r3, [sp, #6]
	movs	r1, #0
	mov	r0, r3
	bl	CLOCK_ControlGate
	.loc 2 985 1
	nop
	add	sp, sp, #12
.LCFI10:
	@ sp needed
	ldr	pc, [sp], #4
.LFE147:
	.size	CLOCK_DisableClock, .-CLOCK_DisableClock
	.section	.text.EnableIRQ,"ax",%progbits
	.align	1
	.syntax unified
	.thumb
	.thumb_func
	.fpu fpv5-d16
	.type	EnableIRQ, %function
EnableIRQ:
.LFB159:
	.file 3 "C:\\Users\\cchhu\\Documents\\SEGGER Embedded Studio for ARM Projects\\RT105x_W25Q\\drivers\\fsl_common.h"
	.loc 3 415 5
	@ args = 0, pretend = 0, frame = 8
	@ frame_needed = 0, uses_anonymous_args = 0
	push	{lr}
.LCFI11:
	sub	sp, sp, #12
.LCFI12:
	mov	r3, r0
	strh	r3, [sp, #6]	@ movhi
	.loc 3 416 12
	ldrsh	r3, [sp, #6]
	cmn	r3, #128
	bne	.L13
	.loc 3 418 20
	movs	r3, #1
	b	.L14
.L13:
	.loc 3 431 9
	ldrsh	r3, [sp, #6]
	mov	r0, r3
	bl	__NVIC_EnableIRQ
	.loc 3 433 16
	movs	r3, #0
.L14:
	.loc 3 434 5
	mov	r0, r3
	add	sp, sp, #12
.LCFI13:
	@ sp needed
	ldr	pc, [sp], #4
.LFE159:
	.size	EnableIRQ, .-EnableIRQ
	.section	.text.LPUART_SoftwareReset,"ax",%progbits
	.align	1
	.syntax unified
	.thumb
	.thumb_func
	.fpu fpv5-d16
	.type	LPUART_SoftwareReset, %function
LPUART_SoftwareReset:
.LFB163:
	.file 4 "C:\\Users\\cchhu\\Documents\\SEGGER Embedded Studio for ARM Projects\\RT105x_W25Q\\drivers\\fsl_lpuart.h"
	.loc 4 277 1
	@ args = 0, pretend = 0, frame = 8
	@ frame_needed = 0, uses_anonymous_args = 0
	@ link register save eliminated.
	sub	sp, sp, #8
.LCFI14:
	str	r0, [sp, #4]
	.loc 4 278 18
	ldr	r3, [sp, #4]
	ldr	r3, [r3, #8]
	orr	r2, r3, #2
	ldr	r3, [sp, #4]
	str	r2, [r3, #8]
	.loc 4 279 18
	ldr	r3, [sp, #4]
	ldr	r3, [r3, #8]
	bic	r2, r3, #2
	ldr	r3, [sp, #4]
	str	r2, [r3, #8]
	.loc 4 280 1
	nop
	add	sp, sp, #8
.LCFI15:
	@ sp needed
	bx	lr
.LFE163:
	.size	LPUART_SoftwareReset, .-LPUART_SoftwareReset
	.section	.rodata.s_lpuartBases,"a"
	.align	2
	.type	s_lpuartBases, %object
	.size	s_lpuartBases, 36
s_lpuartBases:
	.word	0
	.word	1075331072
	.word	1075347456
	.word	1075363840
	.word	1075380224
	.word	1075396608
	.word	1075412992
	.word	1075429376
	.word	1075445760
	.section	.bss.s_lpuartHandle,"aw",%nobits
	.align	2
	.type	s_lpuartHandle, %object
	.size	s_lpuartHandle, 36
s_lpuartHandle:
	.space	36
	.section	.rodata.s_lpuartIRQ,"a"
	.align	2
	.type	s_lpuartIRQ, %object
	.size	s_lpuartIRQ, 18
s_lpuartIRQ:
	.short	-128
	.short	20
	.short	21
	.short	22
	.short	23
	.short	24
	.short	25
	.short	26
	.short	27
	.section	.rodata.s_lpuartClock,"a"
	.align	2
	.type	s_lpuartClock, %object
	.size	s_lpuartClock, 18
s_lpuartClock:
	.short	-1
	.short	1304
	.short	28
	.short	12
	.short	280
	.short	770
	.short	774
	.short	1306
	.short	1550
	.section	.bss.s_lpuartIsr,"aw",%nobits
	.align	2
	.type	s_lpuartIsr, %object
	.size	s_lpuartIsr, 4
s_lpuartIsr:
	.space	4
	.section .rodata
	.align	2
.LC2:
	.ascii	"C:\\Users\\cchhu\\Documents\\SEGGER Embedded Studio"
	.ascii	" for ARM Projects\\RT105x_W25Q\\drivers\\fsl_lpuart"
	.ascii	".c\000"
	.align	2
.LC3:
	.ascii	"instance < ARRAY_SIZE(s_lpuartBases)\000"
	.section	.text.LPUART_GetInstance,"ax",%progbits
	.align	1
	.global	LPUART_GetInstance
	.syntax unified
	.thumb
	.thumb_func
	.fpu fpv5-d16
	.type	LPUART_GetInstance, %function
LPUART_GetInstance:
.LFB171:
	.file 5 "C:\\Users\\cchhu\\Documents\\SEGGER Embedded Studio for ARM Projects\\RT105x_W25Q\\drivers\\fsl_lpuart.c"
	.loc 5 110 1
	@ args = 0, pretend = 0, frame = 16
	@ frame_needed = 0, uses_anonymous_args = 0
	push	{lr}
.LCFI16:
	sub	sp, sp, #20
.LCFI17:
	str	r0, [sp, #4]
	.loc 5 114 19
	movs	r3, #0
	str	r3, [sp, #12]
	.loc 5 114 5
	b	.L17
.L20:
	.loc 5 116 26
	ldr	r2, .L24
	ldr	r3, [sp, #12]
	ldr	r3, [r2, r3, lsl #2]
	.loc 5 116 12
	ldr	r2, [sp, #4]
	cmp	r2, r3
	beq	.L23
	.loc 5 114 70 discriminator 2
	ldr	r3, [sp, #12]
	adds	r3, r3, #1
	str	r3, [sp, #12]
.L17:
	.loc 5 114 5 discriminator 1
	ldr	r3, [sp, #12]
	cmp	r3, #8
	bls	.L20
	b	.L19
.L23:
	.loc 5 118 13
	nop
.L19:
	.loc 5 122 5
	ldr	r3, [sp, #12]
	cmp	r3, #8
	bls	.L21
	.loc 5 122 5 is_stmt 0 discriminator 1
	movs	r2, #122
	ldr	r1, .L24+4
	ldr	r0, .L24+8
	bl	__assert
.L21:
	.loc 5 124 12 is_stmt 1
	ldr	r3, [sp, #12]
	.loc 5 125 1
	mov	r0, r3
	add	sp, sp, #20
.LCFI18:
	@ sp needed
	ldr	pc, [sp], #4
.L25:
	.align	2
.L24:
	.word	s_lpuartBases
	.word	.LC2
	.word	.LC3
.LFE171:
	.size	LPUART_GetInstance, .-LPUART_GetInstance
	.section .rodata
	.align	2
.LC4:
	.ascii	"handle\000"
	.section	.text.LPUART_TransferGetRxRingBufferLength,"ax",%progbits
	.align	1
	.global	LPUART_TransferGetRxRingBufferLength
	.syntax unified
	.thumb
	.thumb_func
	.fpu fpv5-d16
	.type	LPUART_TransferGetRxRingBufferLength, %function
LPUART_TransferGetRxRingBufferLength:
.LFB172:
	.loc 5 134 1
	@ args = 0, pretend = 0, frame = 16
	@ frame_needed = 0, uses_anonymous_args = 0
	push	{lr}
.LCFI19:
	sub	sp, sp, #20
.LCFI20:
	str	r0, [sp, #4]
	str	r1, [sp]
	.loc 5 135 5
	ldr	r3, [sp]
	cmp	r3, #0
	bne	.L27
	.loc 5 135 5 is_stmt 0 discriminator 1
	movs	r2, #135
	ldr	r1, .L31
	ldr	r0, .L31+4
	bl	__assert
.L27:
	.loc 5 139 15 is_stmt 1
	ldr	r3, [sp]
	ldrh	r3, [r3, #34]	@ movhi
	uxth	r2, r3
	.loc 5 139 42
	ldr	r3, [sp]
	ldrh	r3, [r3, #32]	@ movhi
	uxth	r3, r3
	.loc 5 139 8
	cmp	r2, r3
	bls	.L28
	.loc 5 141 31
	ldr	r3, [sp]
	ldrh	r3, [r3, #32]	@ movhi
	uxth	r3, r3
	mov	r2, r3
	.loc 5 141 58
	ldr	r3, [sp]
	ldr	r3, [r3, #28]
	.loc 5 141 50
	add	r3, r3, r2
	.loc 5 141 85
	ldr	r2, [sp]
	ldrh	r2, [r2, #34]	@ movhi
	uxth	r2, r2
	.loc 5 141 14
	subs	r3, r3, r2
	str	r3, [sp, #12]
	b	.L29
.L28:
	.loc 5 145 31
	ldr	r3, [sp]
	ldrh	r3, [r3, #32]	@ movhi
	uxth	r3, r3
	mov	r2, r3
	.loc 5 145 58
	ldr	r3, [sp]
	ldrh	r3, [r3, #34]	@ movhi
	uxth	r3, r3
	.loc 5 145 50
	subs	r3, r2, r3
	.loc 5 145 14
	str	r3, [sp, #12]
.L29:
	.loc 5 148 12
	ldr	r3, [sp, #12]
	.loc 5 149 1
	mov	r0, r3
	add	sp, sp, #20
.LCFI21:
	@ sp needed
	ldr	pc, [sp], #4
.L32:
	.align	2
.L31:
	.word	.LC2
	.word	.LC4
.LFE172:
	.size	LPUART_TransferGetRxRingBufferLength, .-LPUART_TransferGetRxRingBufferLength
	.section	.text.LPUART_TransferIsRxRingBufferFull,"ax",%progbits
	.align	1
	.syntax unified
	.thumb
	.thumb_func
	.fpu fpv5-d16
	.type	LPUART_TransferIsRxRingBufferFull, %function
LPUART_TransferIsRxRingBufferFull:
.LFB173:
	.loc 5 152 1
	@ args = 0, pretend = 0, frame = 16
	@ frame_needed = 0, uses_anonymous_args = 0
	push	{lr}
.LCFI22:
	sub	sp, sp, #20
.LCFI23:
	str	r0, [sp, #4]
	str	r1, [sp]
	.loc 5 153 5
	ldr	r3, [sp]
	cmp	r3, #0
	bne	.L34
	.loc 5 153 5 is_stmt 0 discriminator 1
	movs	r2, #153
	ldr	r1, .L38
	ldr	r0, .L38+4
	bl	__assert
.L34:
	.loc 5 157 9 is_stmt 1
	ldr	r1, [sp]
	ldr	r0, [sp, #4]
	bl	LPUART_TransferGetRxRingBufferLength
	mov	r2, r0
	.loc 5 157 70
	ldr	r3, [sp]
	ldr	r3, [r3, #28]
	.loc 5 157 89
	subs	r3, r3, #1
	.loc 5 157 8
	cmp	r2, r3
	bne	.L35
	.loc 5 159 14
	movs	r3, #1
	strb	r3, [sp, #15]
	b	.L36
.L35:
	.loc 5 163 14
	movs	r3, #0
	strb	r3, [sp, #15]
.L36:
	.loc 5 165 12
	ldrb	r3, [sp, #15]	@ zero_extendqisi2
	.loc 5 166 1
	mov	r0, r3
	add	sp, sp, #20
.LCFI24:
	@ sp needed
	ldr	pc, [sp], #4
.L39:
	.align	2
.L38:
	.word	.LC2
	.word	.LC4
.LFE173:
	.size	LPUART_TransferIsRxRingBufferFull, .-LPUART_TransferIsRxRingBufferFull
	.section .rodata
	.align	2
.LC5:
	.ascii	"data\000"
	.section	.text.LPUART_WriteNonBlocking,"ax",%progbits
	.align	1
	.syntax unified
	.thumb
	.thumb_func
	.fpu fpv5-d16
	.type	LPUART_WriteNonBlocking, %function
LPUART_WriteNonBlocking:
.LFB174:
	.loc 5 169 1
	@ args = 0, pretend = 0, frame = 24
	@ frame_needed = 0, uses_anonymous_args = 0
	push	{lr}
.LCFI25:
	sub	sp, sp, #28
.LCFI26:
	str	r0, [sp, #12]
	str	r1, [sp, #8]
	str	r2, [sp, #4]
	.loc 5 170 5
	ldr	r3, [sp, #8]
	cmp	r3, #0
	bne	.L41
	.loc 5 170 5 is_stmt 0 discriminator 1
	movs	r2, #170
	ldr	r1, .L44
	ldr	r0, .L44+4
	bl	__assert
.L41:
	.loc 5 176 12 is_stmt 1
	movs	r3, #0
	str	r3, [sp, #20]
	.loc 5 176 5
	b	.L42
.L43:
	.loc 5 178 26 discriminator 3
	ldr	r2, [sp, #8]
	ldr	r3, [sp, #20]
	add	r3, r3, r2
	ldrb	r3, [r3]	@ zero_extendqisi2
	mov	r2, r3
	.loc 5 178 20 discriminator 3
	ldr	r3, [sp, #12]
	str	r2, [r3, #28]
	.loc 5 176 30 discriminator 3
	ldr	r3, [sp, #20]
	adds	r3, r3, #1
	str	r3, [sp, #20]
.L42:
	.loc 5 176 5 discriminator 1
	ldr	r2, [sp, #20]
	ldr	r3, [sp, #4]
	cmp	r2, r3
	bcc	.L43
	.loc 5 180 1
	nop
	add	sp, sp, #28
.LCFI27:
	@ sp needed
	ldr	pc, [sp], #4
.L45:
	.align	2
.L44:
	.word	.LC2
	.word	.LC5
.LFE174:
	.size	LPUART_WriteNonBlocking, .-LPUART_WriteNonBlocking
	.section	.text.LPUART_ReadNonBlocking,"ax",%progbits
	.align	1
	.syntax unified
	.thumb
	.thumb_func
	.fpu fpv5-d16
	.type	LPUART_ReadNonBlocking, %function
LPUART_ReadNonBlocking:
.LFB175:
	.loc 5 183 1
	@ args = 0, pretend = 0, frame = 32
	@ frame_needed = 0, uses_anonymous_args = 0
	push	{lr}
.LCFI28:
	sub	sp, sp, #36
.LCFI29:
	str	r0, [sp, #12]
	str	r1, [sp, #8]
	str	r2, [sp, #4]
	.loc 5 184 5
	ldr	r3, [sp, #8]
	cmp	r3, #0
	bne	.L47
	.loc 5 184 5 is_stmt 0 discriminator 1
	movs	r2, #184
	ldr	r1, .L55
	ldr	r0, .L55+4
	bl	__assert
.L47:
	.loc 5 188 14 is_stmt 1
	ldr	r3, [sp, #12]
	ldr	r3, [r3, #24]
	str	r3, [sp, #24]
	.loc 5 190 16
	ldr	r3, [sp, #24]
	and	r3, r3, #2048
	.loc 5 190 39
	cmp	r3, #0
	bne	.L48
	.loc 5 190 51 discriminator 2
	ldr	r3, [sp, #24]
	and	r3, r3, #16
	.loc 5 190 39 discriminator 2
	cmp	r3, #0
	bne	.L49
	.loc 5 190 83 discriminator 3
	ldr	r3, [sp, #24]
	and	r3, r3, #2
	.loc 5 190 74 discriminator 3
	cmp	r3, #0
	beq	.L49
.L48:
	.loc 5 190 39 discriminator 5
	movs	r3, #1
	b	.L50
.L49:
	.loc 5 190 39 is_stmt 0 discriminator 6
	movs	r3, #0
.L50:
	.loc 5 189 10 is_stmt 1
	strb	r3, [sp, #23]
	ldrb	r3, [sp, #23]
	and	r3, r3, #1
	strb	r3, [sp, #23]
	.loc 5 195 12
	movs	r3, #0
	str	r3, [sp, #28]
	.loc 5 195 5
	b	.L51
.L54:
	.loc 5 198 12
	ldrb	r3, [sp, #23]	@ zero_extendqisi2
	cmp	r3, #0
	beq	.L52
	.loc 5 200 28
	ldr	r3, [sp, #12]
	ldr	r3, [r3, #28]
	.loc 5 200 35
	uxtb	r2, r3
	.loc 5 200 17
	ldr	r1, [sp, #8]
	ldr	r3, [sp, #28]
	add	r3, r3, r1
	.loc 5 200 35
	and	r2, r2, #127
	uxtb	r2, r2
	.loc 5 200 21
	strb	r2, [r3]
	b	.L53
.L52:
	.loc 5 204 27
	ldr	r3, [sp, #12]
	ldr	r1, [r3, #28]
	.loc 5 204 17
	ldr	r2, [sp, #8]
	ldr	r3, [sp, #28]
	add	r3, r3, r2
	.loc 5 204 21
	uxtb	r2, r1
	strb	r2, [r3]
.L53:
	.loc 5 195 30 discriminator 2
	ldr	r3, [sp, #28]
	adds	r3, r3, #1
	str	r3, [sp, #28]
.L51:
	.loc 5 195 5 discriminator 1
	ldr	r2, [sp, #28]
	ldr	r3, [sp, #4]
	cmp	r2, r3
	bcc	.L54
	.loc 5 210 1
	nop
	add	sp, sp, #36
.LCFI30:
	@ sp needed
	ldr	pc, [sp], #4
.L56:
	.align	2
.L55:
	.word	.LC2
	.word	.LC5
.LFE175:
	.size	LPUART_ReadNonBlocking, .-LPUART_ReadNonBlocking
	.section .rodata
	.align	2
.LC6:
	.ascii	"config\000"
	.align	2
.LC7:
	.ascii	"config->baudRate_Bps\000"
	.align	2
.LC8:
	.ascii	"FSL_FEATURE_LPUART_FIFO_SIZEn(base) >= config->txFi"
	.ascii	"foWatermark\000"
	.align	2
.LC9:
	.ascii	"FSL_FEATURE_LPUART_FIFO_SIZEn(base) >= config->rxFi"
	.ascii	"foWatermark\000"
	.section	.text.LPUART_Init,"ax",%progbits
	.align	1
	.global	LPUART_Init
	.syntax unified
	.thumb
	.thumb_func
	.fpu fpv5-d16
	.type	LPUART_Init, %function
LPUART_Init:
.LFB176:
	.loc 5 237 1
	@ args = 0, pretend = 0, frame = 48
	@ frame_needed = 0, uses_anonymous_args = 0
	push	{lr}
.LCFI31:
	sub	sp, sp, #52
.LCFI32:
	str	r0, [sp, #12]
	str	r1, [sp, #8]
	str	r2, [sp, #4]
	.loc 5 238 5
	ldr	r3, [sp, #8]
	cmp	r3, #0
	bne	.L58
	.loc 5 238 5 is_stmt 0 discriminator 1
	movs	r2, #238
	ldr	r1, .L80
	ldr	r0, .L80+4
	bl	__assert
.L58:
	.loc 5 239 5 is_stmt 1
	ldr	r3, [sp, #8]
	ldr	r3, [r3]
	cmp	r3, #0
	bne	.L59
	.loc 5 239 5 is_stmt 0 discriminator 1
	movs	r2, #239
	ldr	r1, .L80
	ldr	r0, .L80+8
	bl	__assert
.L59:
	.loc 5 241 5 is_stmt 1
	ldr	r3, [sp, #8]
	ldrb	r3, [r3, #8]	@ zero_extendqisi2
	cmp	r3, #4
	bls	.L60
	.loc 5 241 5 is_stmt 0 discriminator 1
	movs	r2, #241
	ldr	r1, .L80
	ldr	r0, .L80+12
	bl	__assert
.L60:
	.loc 5 242 5 is_stmt 1
	ldr	r3, [sp, #8]
	ldrb	r3, [r3, #9]	@ zero_extendqisi2
	cmp	r3, #4
	bls	.L61
	.loc 5 242 5 is_stmt 0 discriminator 1
	movs	r2, #242
	ldr	r1, .L80
	ldr	r0, .L80+16
	bl	__assert
.L61:
	.loc 5 255 14 is_stmt 1
	ldr	r3, [sp, #8]
	ldr	r3, [r3]
	str	r3, [sp, #24]
	.loc 5 256 9
	movs	r3, #0
	str	r3, [sp, #36]
	.loc 5 257 9
	movs	r3, #0
	strh	r3, [sp, #42]	@ movhi
	.loc 5 258 18
	movs	r3, #4
	str	r3, [sp, #32]
	.loc 5 258 5
	b	.L62
.L66:
	.loc 5 261 41
	ldr	r3, [sp, #8]
	ldr	r3, [r3]
	.loc 5 261 56
	ldr	r2, [sp, #32]
	mul	r3, r2, r3
	.loc 5 261 32
	ldr	r2, [sp, #4]
	udiv	r3, r2, r3
	.loc 5 261 17
	strh	r3, [sp, #40]	@ movhi
	.loc 5 263 12
	ldrh	r3, [sp, #40]
	cmp	r3, #0
	bne	.L63
	.loc 5 265 21
	movs	r3, #1
	strh	r3, [sp, #40]	@ movhi
.L63:
	.loc 5 268 50
	ldrh	r3, [sp, #40]
	ldr	r2, [sp, #32]
	mul	r3, r2, r3
	.loc 5 268 24
	ldr	r2, [sp, #4]
	udiv	r3, r2, r3
	str	r3, [sp, #20]
	.loc 5 270 43
	ldr	r3, [sp, #8]
	ldr	r3, [r3]
	.loc 5 270 18
	ldr	r2, [sp, #20]
	subs	r3, r2, r3
	str	r3, [sp, #28]
	.loc 5 273 31
	ldr	r3, [sp, #8]
	ldr	r2, [r3]
	.loc 5 273 83
	ldrh	r3, [sp, #40]
	adds	r3, r3, #1
	mov	r1, r3
	.loc 5 273 72
	ldr	r3, [sp, #32]
	mul	r3, r3, r1
	.loc 5 273 61
	ldr	r1, [sp, #4]
	udiv	r3, r1, r3
	.loc 5 273 46
	subs	r3, r2, r3
	.loc 5 273 12
	ldr	r2, [sp, #28]
	cmp	r2, r3
	bls	.L64
	.loc 5 275 30
	ldr	r3, [sp, #8]
	ldr	r2, [r3]
	.loc 5 275 82
	ldrh	r3, [sp, #40]
	adds	r3, r3, #1
	mov	r1, r3
	.loc 5 275 71
	ldr	r3, [sp, #32]
	mul	r3, r3, r1
	.loc 5 275 60
	ldr	r1, [sp, #4]
	udiv	r3, r1, r3
	.loc 5 275 22
	subs	r3, r2, r3
	str	r3, [sp, #28]
	.loc 5 276 20
	ldrh	r3, [sp, #40]
	adds	r3, r3, #1
	strh	r3, [sp, #40]	@ movhi
.L64:
	.loc 5 279 12
	ldr	r2, [sp, #28]
	ldr	r3, [sp, #24]
	cmp	r2, r3
	bhi	.L65
	.loc 5 281 22
	ldr	r3, [sp, #28]
	str	r3, [sp, #24]
	.loc 5 282 17
	ldr	r3, [sp, #32]
	str	r3, [sp, #36]
	.loc 5 283 17
	ldrh	r3, [sp, #40]	@ movhi
	strh	r3, [sp, #42]	@ movhi
.L65:
	.loc 5 258 45 discriminator 2
	ldr	r3, [sp, #32]
	adds	r3, r3, #1
	str	r3, [sp, #32]
.L62:
	.loc 5 258 5 discriminator 1
	ldr	r3, [sp, #32]
	cmp	r3, #32
	bls	.L66
	.loc 5 289 28
	ldr	r3, [sp, #8]
	ldr	r3, [r3]
	.loc 5 289 43
	ldr	r2, .L80+20
	umull	r2, r3, r2, r3
	lsrs	r2, r3, #5
	.loc 5 289 50
	mov	r3, r2
	lsls	r3, r3, #1
	add	r3, r3, r2
	.loc 5 289 8
	ldr	r2, [sp, #24]
	cmp	r2, r3
	bls	.L67
	.loc 5 292 16
	movw	r3, #1313
	b	.L68
.L67:
	.loc 5 297 25
	ldr	r0, [sp, #12]
	bl	LPUART_GetInstance
	str	r0, [sp, #16]
	.loc 5 300 5
	ldr	r2, .L80+24
	ldr	r3, [sp, #16]
	ldrsh	r3, [r2, r3, lsl #1]
	mov	r0, r3
	bl	CLOCK_EnableClock
	.loc 5 309 5
	ldr	r0, [sp, #12]
	bl	LPUART_SoftwareReset
	.loc 5 315 10
	ldr	r3, [sp, #12]
	ldr	r3, [r3, #16]
	str	r3, [sp, #44]
	.loc 5 319 8
	ldr	r3, [sp, #36]
	cmp	r3, #3
	bls	.L69
	.loc 5 319 19 discriminator 1
	ldr	r3, [sp, #36]
	cmp	r3, #7
	bhi	.L69
	.loc 5 321 14
	ldr	r3, [sp, #44]
	orr	r3, r3, #131072
	str	r3, [sp, #44]
.L69:
	.loc 5 325 10
	ldr	r3, [sp, #44]
	bic	r3, r3, #520093696
	str	r3, [sp, #44]
	.loc 5 326 13
	ldr	r3, [sp, #36]
	subs	r3, r3, #1
	lsls	r3, r3, #24
	and	r3, r3, #520093696
	.loc 5 326 10
	ldr	r2, [sp, #44]
	orrs	r3, r3, r2
	str	r3, [sp, #44]
	.loc 5 329 10
	ldr	r2, [sp, #44]
	ldr	r3, .L80+28
	ands	r3, r3, r2
	str	r3, [sp, #44]
	.loc 5 330 25
	ldrh	r3, [sp, #42]
	ubfx	r2, r3, #0, #13
	.loc 5 330 23
	ldr	r3, [sp, #44]
	orrs	r2, r2, r3
	.loc 5 330 16
	ldr	r3, [sp, #12]
	str	r2, [r3, #16]
	.loc 5 333 16
	ldr	r3, [sp, #12]
	ldr	r3, [r3, #16]
	bic	r2, r3, #536870912
	ldr	r3, [sp, #12]
	str	r2, [r3, #16]
	.loc 5 335 16
	ldr	r3, [sp, #12]
	ldr	r2, [r3, #24]
	.loc 5 335 10
	ldr	r3, .L80+32
	ands	r3, r3, r2
	str	r3, [sp, #44]
	.loc 5 340 24
	ldr	r3, [sp, #8]
	ldrb	r3, [r3, #4]	@ zero_extendqisi2
	.loc 5 340 9
	mov	r2, r3
	.loc 5 340 39
	ldr	r3, [sp, #8]
	ldrb	r3, [r3, #15]	@ zero_extendqisi2
	lsls	r3, r3, #8
	and	r3, r3, #1792
	.loc 5 340 37
	orrs	r2, r2, r3
	.loc 5 340 83
	ldr	r3, [sp, #8]
	ldrb	r3, [r3, #14]	@ zero_extendqisi2
	lsls	r3, r3, #2
	and	r3, r3, #4
	.loc 5 340 81
	orrs	r3, r3, r2
	.loc 5 339 10
	ldr	r2, [sp, #44]
	orrs	r3, r3, r2
	str	r3, [sp, #44]
	.loc 5 343 40
	ldr	r3, [sp, #8]
	ldrb	r3, [r3, #5]	@ zero_extendqisi2
	.loc 5 343 8
	cmp	r3, #1
	bne	.L70
	.loc 5 345 45
	ldr	r3, [sp, #8]
	ldrb	r3, [r3, #4]	@ zero_extendqisi2
	.loc 5 345 12
	cmp	r3, #0
	beq	.L71
	.loc 5 347 18
	ldr	r3, [sp, #44]
	bic	r3, r3, #2048
	str	r3, [sp, #44]
	b	.L73
.L71:
	.loc 5 351 18
	ldr	r3, [sp, #44]
	orr	r3, r3, #2048
	str	r3, [sp, #44]
	b	.L73
.L81:
	.align	2
.L80:
	.word	.LC2
	.word	.LC6
	.word	.LC7
	.word	.LC8
	.word	.LC9
	.word	1374389535
	.word	s_lpuartClock
	.word	-8192
	.word	-1816
.L70:
	.loc 5 357 45
	ldr	r3, [sp, #8]
	ldrb	r3, [r3, #4]	@ zero_extendqisi2
	.loc 5 357 12
	cmp	r3, #0
	beq	.L73
	.loc 5 359 18
	ldr	r3, [sp, #44]
	orr	r3, r3, #16
	str	r3, [sp, #44]
.L73:
	.loc 5 363 16
	ldr	r3, [sp, #12]
	ldr	r2, [sp, #44]
	str	r2, [r3, #24]
	.loc 5 367 16
	ldr	r3, [sp, #12]
	ldr	r3, [r3, #16]
	.loc 5 367 10
	bic	r3, r3, #8192
	str	r3, [sp, #44]
	.loc 5 368 25
	ldr	r3, [sp, #8]
	ldrb	r3, [r3, #7]	@ zero_extendqisi2
	lsls	r3, r3, #13
	and	r2, r3, #8192
	.loc 5 368 23
	ldr	r3, [sp, #44]
	orrs	r2, r2, r3
	.loc 5 368 16
	ldr	r3, [sp, #12]
	str	r2, [r3, #16]
	.loc 5 381 38
	ldr	r3, [sp, #8]
	ldrb	r3, [r3, #9]	@ zero_extendqisi2
	.loc 5 381 57
	lsls	r3, r3, #16
	.loc 5 381 72
	ldr	r2, [sp, #8]
	ldrb	r2, [r2, #8]	@ zero_extendqisi2
	.loc 5 381 64
	orrs	r2, r2, r3
	.loc 5 381 17
	ldr	r3, [sp, #12]
	str	r2, [r3, #44]
	.loc 5 384 16
	ldr	r3, [sp, #12]
	ldr	r3, [r3, #40]
	orr	r2, r3, #136
	ldr	r3, [sp, #12]
	str	r2, [r3, #40]
	.loc 5 387 16
	ldr	r3, [sp, #12]
	ldr	r3, [r3, #40]
	orr	r2, r3, #49152
	ldr	r3, [sp, #12]
	str	r2, [r3, #40]
	.loc 5 391 10
	ldr	r3, .L82
	str	r3, [sp, #44]
	.loc 5 395 10
	ldr	r3, [sp, #44]
	orr	r3, r3, #-2147483648
	str	r3, [sp, #44]
	.loc 5 399 10
	ldr	r3, [sp, #44]
	orr	r3, r3, #49152
	str	r3, [sp, #44]
	.loc 5 404 17
	ldr	r3, [sp, #12]
	ldr	r2, [r3, #36]
	.loc 5 404 20
	ldr	r3, [sp, #8]
	ldrb	r3, [r3, #13]	@ zero_extendqisi2
	lsls	r3, r3, #4
	and	r1, r3, #16
	.loc 5 404 63
	ldr	r3, [sp, #8]
	ldrb	r3, [r3, #12]	@ zero_extendqisi2
	lsls	r3, r3, #5
	and	r3, r3, #32
	.loc 5 404 61
	orrs	r3, r3, r1
	.loc 5 404 17
	orrs	r2, r2, r3
	ldr	r3, [sp, #12]
	str	r2, [r3, #36]
	.loc 5 405 15
	ldr	r3, [sp, #8]
	ldrb	r3, [r3, #10]	@ zero_extendqisi2
	.loc 5 405 8
	cmp	r3, #0
	beq	.L74
	.loc 5 408 21
	ldr	r3, [sp, #12]
	ldr	r3, [r3, #36]
	orr	r2, r3, #8
	ldr	r3, [sp, #12]
	str	r2, [r3, #36]
.L74:
	.loc 5 410 15
	ldr	r3, [sp, #8]
	ldrb	r3, [r3, #11]	@ zero_extendqisi2
	.loc 5 410 8
	cmp	r3, #0
	beq	.L75
	.loc 5 413 21
	ldr	r3, [sp, #12]
	ldr	r3, [r3, #36]
	orr	r2, r3, #1
	ldr	r3, [sp, #12]
	str	r2, [r3, #36]
.L75:
	.loc 5 418 15
	ldr	r3, [sp, #8]
	ldrb	r3, [r3, #6]	@ zero_extendqisi2
	.loc 5 418 8
	cmp	r3, #0
	beq	.L76
	.loc 5 420 14
	ldr	r3, [sp, #44]
	orr	r3, r3, #536870912
	str	r3, [sp, #44]
	b	.L77
.L76:
	.loc 5 424 14
	ldr	r3, [sp, #44]
	bic	r3, r3, #536870912
	str	r3, [sp, #44]
.L77:
	.loc 5 427 16
	ldr	r3, [sp, #12]
	ldr	r2, [r3, #20]
	ldr	r3, [sp, #44]
	orrs	r2, r2, r3
	ldr	r3, [sp, #12]
	str	r2, [r3, #20]
	.loc 5 430 10
	ldr	r3, [sp, #12]
	ldr	r3, [r3, #24]
	str	r3, [sp, #44]
	.loc 5 431 15
	ldr	r3, [sp, #8]
	ldrb	r3, [r3, #16]	@ zero_extendqisi2
	.loc 5 431 8
	cmp	r3, #0
	beq	.L78
	.loc 5 433 14
	ldr	r3, [sp, #44]
	orr	r3, r3, #524288
	str	r3, [sp, #44]
.L78:
	.loc 5 436 15
	ldr	r3, [sp, #8]
	ldrb	r3, [r3, #17]	@ zero_extendqisi2
	.loc 5 436 8
	cmp	r3, #0
	beq	.L79
	.loc 5 438 14
	ldr	r3, [sp, #44]
	orr	r3, r3, #262144
	str	r3, [sp, #44]
.L79:
	.loc 5 441 16
	ldr	r3, [sp, #12]
	ldr	r2, [sp, #44]
	str	r2, [r3, #24]
	.loc 5 443 12
	movs	r3, #0
.L68:
	.loc 5 444 1
	mov	r0, r3
	add	sp, sp, #52
.LCFI33:
	@ sp needed
	ldr	pc, [sp], #4
.L83:
	.align	2
.L82:
	.word	1075773440
.LFE176:
	.size	LPUART_Init, .-LPUART_Init
	.section	.text.LPUART_Deinit,"ax",%progbits
	.align	1
	.global	LPUART_Deinit
	.syntax unified
	.thumb
	.thumb_func
	.fpu fpv5-d16
	.type	LPUART_Deinit, %function
LPUART_Deinit:
.LFB177:
	.loc 5 453 1
	@ args = 0, pretend = 0, frame = 16
	@ frame_needed = 0, uses_anonymous_args = 0
	push	{lr}
.LCFI34:
	sub	sp, sp, #20
.LCFI35:
	str	r0, [sp, #4]
	.loc 5 458 11
	nop
.L85:
	.loc 5 458 23 discriminator 1
	ldr	r3, [sp, #4]
	ldr	r3, [r3, #44]
	.loc 5 458 60 discriminator 1
	and	r3, r3, #1792
	.loc 5 458 11 discriminator 1
	cmp	r3, #0
	bne	.L85
	.loc 5 463 11
	nop
.L86:
	.loc 5 463 22 discriminator 1
	ldr	r3, [sp, #4]
	ldr	r3, [r3, #20]
	.loc 5 463 29 discriminator 1
	and	r3, r3, #4194304
	.loc 5 463 11 discriminator 1
	cmp	r3, #0
	beq	.L86
	.loc 5 468 10
	ldr	r3, .L87
	str	r3, [sp, #12]
	.loc 5 472 10
	ldr	r3, [sp, #12]
	orr	r3, r3, #-2147483648
	str	r3, [sp, #12]
	.loc 5 476 10
	ldr	r3, [sp, #12]
	orr	r3, r3, #49152
	str	r3, [sp, #12]
	.loc 5 479 16
	ldr	r3, [sp, #4]
	ldr	r2, [r3, #20]
	ldr	r3, [sp, #12]
	orrs	r2, r2, r3
	ldr	r3, [sp, #4]
	str	r2, [r3, #20]
	.loc 5 482 16
	ldr	r3, [sp, #4]
	movs	r2, #0
	str	r2, [r3, #24]
	.loc 5 485 25
	ldr	r0, [sp, #4]
	bl	LPUART_GetInstance
	str	r0, [sp, #8]
	.loc 5 488 5
	ldr	r2, .L87+4
	ldr	r3, [sp, #8]
	ldrsh	r3, [r2, r3, lsl #1]
	mov	r0, r3
	bl	CLOCK_DisableClock
	.loc 5 495 1
	nop
	add	sp, sp, #20
.LCFI36:
	@ sp needed
	ldr	pc, [sp], #4
.L88:
	.align	2
.L87:
	.word	1075773440
	.word	s_lpuartClock
.LFE177:
	.size	LPUART_Deinit, .-LPUART_Deinit
	.section	.text.LPUART_GetDefaultConfig,"ax",%progbits
	.align	1
	.global	LPUART_GetDefaultConfig
	.syntax unified
	.thumb
	.thumb_func
	.fpu fpv5-d16
	.type	LPUART_GetDefaultConfig, %function
LPUART_GetDefaultConfig:
.LFB178:
	.loc 5 517 1
	@ args = 0, pretend = 0, frame = 8
	@ frame_needed = 0, uses_anonymous_args = 0
	push	{lr}
.LCFI37:
	sub	sp, sp, #12
.LCFI38:
	str	r0, [sp, #4]
	.loc 5 518 5
	ldr	r3, [sp, #4]
	cmp	r3, #0
	bne	.L90
	.loc 5 518 5 is_stmt 0 discriminator 1
	movw	r2, #518
	ldr	r1, .L91
	ldr	r0, .L91+4
	bl	__assert
.L90:
	.loc 5 521 5 is_stmt 1
	movs	r2, #20
	movs	r1, #0
	ldr	r0, [sp, #4]
	bl	memset
	.loc 5 523 26
	ldr	r3, [sp, #4]
	mov	r2, #115200
	str	r2, [r3]
	.loc 5 524 24
	ldr	r3, [sp, #4]
	movs	r2, #0
	strb	r2, [r3, #4]
	.loc 5 525 27
	ldr	r3, [sp, #4]
	movs	r2, #0
	strb	r2, [r3, #5]
	.loc 5 526 19
	ldr	r3, [sp, #4]
	movs	r2, #0
	strb	r2, [r3, #6]
	.loc 5 528 26
	ldr	r3, [sp, #4]
	movs	r2, #0
	strb	r2, [r3, #7]
	.loc 5 531 29
	ldr	r3, [sp, #4]
	movs	r2, #0
	strb	r2, [r3, #8]
	.loc 5 532 29
	ldr	r3, [sp, #4]
	movs	r2, #0
	strb	r2, [r3, #9]
	.loc 5 535 25
	ldr	r3, [sp, #4]
	movs	r2, #0
	strb	r2, [r3, #10]
	.loc 5 536 25
	ldr	r3, [sp, #4]
	movs	r2, #0
	strb	r2, [r3, #11]
	.loc 5 537 25
	ldr	r3, [sp, #4]
	movs	r2, #0
	strb	r2, [r3, #13]
	.loc 5 538 25
	ldr	r3, [sp, #4]
	movs	r2, #0
	strb	r2, [r3, #12]
	.loc 5 540 24
	ldr	r3, [sp, #4]
	movs	r2, #0
	strb	r2, [r3, #14]
	.loc 5 541 26
	ldr	r3, [sp, #4]
	movs	r2, #0
	strb	r2, [r3, #15]
	.loc 5 542 22
	ldr	r3, [sp, #4]
	movs	r2, #0
	strb	r2, [r3, #16]
	.loc 5 543 22
	ldr	r3, [sp, #4]
	movs	r2, #0
	strb	r2, [r3, #17]
	.loc 5 544 1
	nop
	add	sp, sp, #12
.LCFI39:
	@ sp needed
	ldr	pc, [sp], #4
.L92:
	.align	2
.L91:
	.word	.LC2
	.word	.LC6
.LFE178:
	.size	LPUART_GetDefaultConfig, .-LPUART_GetDefaultConfig
	.section .rodata
	.align	2
.LC10:
	.ascii	"baudRate_Bps\000"
	.section	.text.LPUART_SetBaudRate,"ax",%progbits
	.align	1
	.global	LPUART_SetBaudRate
	.syntax unified
	.thumb
	.thumb_func
	.fpu fpv5-d16
	.type	LPUART_SetBaudRate, %function
LPUART_SetBaudRate:
.LFB179:
	.loc 5 562 1
	@ args = 0, pretend = 0, frame = 48
	@ frame_needed = 0, uses_anonymous_args = 0
	push	{lr}
.LCFI40:
	sub	sp, sp, #52
.LCFI41:
	str	r0, [sp, #12]
	str	r1, [sp, #8]
	str	r2, [sp, #4]
	.loc 5 563 5
	ldr	r3, [sp, #8]
	cmp	r3, #0
	bne	.L94
	.loc 5 563 5 is_stmt 0 discriminator 1
	movw	r2, #563
	ldr	r1, .L103
	ldr	r0, .L103+4
	bl	__assert
.L94:
	.loc 5 575 14 is_stmt 1
	ldr	r3, [sp, #8]
	str	r3, [sp, #24]
	.loc 5 576 9
	movs	r3, #0
	str	r3, [sp, #36]
	.loc 5 577 9
	movs	r3, #0
	strh	r3, [sp, #42]	@ movhi
	.loc 5 578 18
	movs	r3, #4
	str	r3, [sp, #32]
	.loc 5 578 5
	b	.L95
.L99:
	.loc 5 581 48
	ldr	r3, [sp, #8]
	ldr	r2, [sp, #32]
	mul	r3, r2, r3
	.loc 5 581 32
	ldr	r2, [sp, #4]
	udiv	r3, r2, r3
	.loc 5 581 17
	strh	r3, [sp, #40]	@ movhi
	.loc 5 583 12
	ldrh	r3, [sp, #40]
	cmp	r3, #0
	bne	.L96
	.loc 5 585 21
	movs	r3, #1
	strh	r3, [sp, #40]	@ movhi
.L96:
	.loc 5 588 50
	ldrh	r3, [sp, #40]
	ldr	r2, [sp, #32]
	mul	r3, r2, r3
	.loc 5 588 24
	ldr	r2, [sp, #4]
	udiv	r3, r2, r3
	str	r3, [sp, #20]
	.loc 5 590 18
	ldr	r2, [sp, #20]
	ldr	r3, [sp, #8]
	subs	r3, r2, r3
	str	r3, [sp, #28]
	.loc 5 593 75
	ldrh	r3, [sp, #40]
	adds	r3, r3, #1
	mov	r2, r3
	.loc 5 593 64
	ldr	r3, [sp, #32]
	mul	r3, r3, r2
	.loc 5 593 53
	ldr	r2, [sp, #4]
	udiv	r3, r2, r3
	.loc 5 593 38
	ldr	r2, [sp, #8]
	subs	r3, r2, r3
	.loc 5 593 12
	ldr	r2, [sp, #28]
	cmp	r2, r3
	bls	.L97
	.loc 5 595 74
	ldrh	r3, [sp, #40]
	adds	r3, r3, #1
	mov	r2, r3
	.loc 5 595 63
	ldr	r3, [sp, #32]
	mul	r3, r3, r2
	.loc 5 595 52
	ldr	r2, [sp, #4]
	udiv	r3, r2, r3
	.loc 5 595 22
	ldr	r2, [sp, #8]
	subs	r3, r2, r3
	str	r3, [sp, #28]
	.loc 5 596 20
	ldrh	r3, [sp, #40]
	adds	r3, r3, #1
	strh	r3, [sp, #40]	@ movhi
.L97:
	.loc 5 599 12
	ldr	r2, [sp, #28]
	ldr	r3, [sp, #24]
	cmp	r2, r3
	bhi	.L98
	.loc 5 601 22
	ldr	r3, [sp, #28]
	str	r3, [sp, #24]
	.loc 5 602 17
	ldr	r3, [sp, #32]
	str	r3, [sp, #36]
	.loc 5 603 17
	ldrh	r3, [sp, #40]	@ movhi
	strh	r3, [sp, #42]	@ movhi
.L98:
	.loc 5 578 45 discriminator 2
	ldr	r3, [sp, #32]
	adds	r3, r3, #1
	str	r3, [sp, #32]
.L95:
	.loc 5 578 5 discriminator 1
	ldr	r3, [sp, #32]
	cmp	r3, #32
	bls	.L99
	.loc 5 609 35
	ldr	r3, [sp, #8]
	ldr	r2, .L103+8
	umull	r2, r3, r2, r3
	lsrs	r2, r3, #5
	.loc 5 609 42
	mov	r3, r2
	lsls	r3, r3, #1
	add	r3, r3, r2
	.loc 5 609 8
	ldr	r2, [sp, #24]
	cmp	r2, r3
	bcs	.L100
	.loc 5 612 17
	ldr	r3, [sp, #12]
	ldr	r3, [r3, #24]
	str	r3, [sp, #16]
	.loc 5 615 20
	ldr	r3, [sp, #12]
	ldr	r3, [r3, #24]
	bic	r2, r3, #786432
	ldr	r3, [sp, #12]
	str	r2, [r3, #24]
	.loc 5 617 14
	ldr	r3, [sp, #12]
	ldr	r3, [r3, #16]
	str	r3, [sp, #44]
	.loc 5 621 12
	ldr	r3, [sp, #36]
	cmp	r3, #3
	bls	.L101
	.loc 5 621 23 discriminator 1
	ldr	r3, [sp, #36]
	cmp	r3, #7
	bhi	.L101
	.loc 5 623 18
	ldr	r3, [sp, #44]
	orr	r3, r3, #131072
	str	r3, [sp, #44]
.L101:
	.loc 5 627 14
	ldr	r3, [sp, #44]
	bic	r3, r3, #520093696
	str	r3, [sp, #44]
	.loc 5 628 17
	ldr	r3, [sp, #36]
	subs	r3, r3, #1
	lsls	r3, r3, #24
	and	r3, r3, #520093696
	.loc 5 628 14
	ldr	r2, [sp, #44]
	orrs	r3, r3, r2
	str	r3, [sp, #44]
	.loc 5 631 14
	ldr	r2, [sp, #44]
	ldr	r3, .L103+12
	ands	r3, r3, r2
	str	r3, [sp, #44]
	.loc 5 632 29
	ldrh	r3, [sp, #42]
	ubfx	r2, r3, #0, #13
	.loc 5 632 27
	ldr	r3, [sp, #44]
	orrs	r2, r2, r3
	.loc 5 632 20
	ldr	r3, [sp, #12]
	str	r2, [r3, #16]
	.loc 5 635 20
	ldr	r3, [sp, #12]
	ldr	r2, [sp, #16]
	str	r2, [r3, #24]
	.loc 5 637 16
	movs	r3, #0
	b	.L102
.L100:
	.loc 5 642 16
	movw	r3, #1313
.L102:
	.loc 5 644 1
	mov	r0, r3
	add	sp, sp, #52
.LCFI42:
	@ sp needed
	ldr	pc, [sp], #4
.L104:
	.align	2
.L103:
	.word	.LC2
	.word	.LC10
	.word	1374389535
	.word	-8192
.LFE179:
	.size	LPUART_SetBaudRate, .-LPUART_SetBaudRate
	.section	.text.LPUART_EnableInterrupts,"ax",%progbits
	.align	1
	.global	LPUART_EnableInterrupts
	.syntax unified
	.thumb
	.thumb_func
	.fpu fpv5-d16
	.type	LPUART_EnableInterrupts, %function
LPUART_EnableInterrupts:
.LFB180:
	.loc 5 660 1
	@ args = 0, pretend = 0, frame = 8
	@ frame_needed = 0, uses_anonymous_args = 0
	@ link register save eliminated.
	sub	sp, sp, #8
.LCFI43:
	str	r0, [sp, #4]
	str	r1, [sp]
	.loc 5 661 16
	ldr	r3, [sp, #4]
	ldr	r2, [r3, #16]
	.loc 5 661 26
	ldr	r3, [sp]
	lsls	r3, r3, #8
	.loc 5 661 32
	and	r3, r3, #49152
	.loc 5 661 16
	orrs	r2, r2, r3
	ldr	r3, [sp, #4]
	str	r2, [r3, #16]
	.loc 5 663 23
	ldr	r3, [sp, #4]
	ldr	r3, [r3, #40]
	.loc 5 663 30
	bic	r2, r3, #196608
	.loc 5 664 25
	ldr	r3, [sp]
	lsls	r3, r3, #8
	.loc 5 664 31
	and	r3, r3, #768
	.loc 5 663 82
	orrs	r2, r2, r3
	.loc 5 663 16
	ldr	r3, [sp, #4]
	str	r2, [r3, #40]
	.loc 5 666 10
	ldr	r3, [sp]
	bic	r3, r3, #255
	str	r3, [sp]
	.loc 5 667 16
	ldr	r3, [sp, #4]
	ldr	r2, [r3, #24]
	ldr	r3, [sp]
	orrs	r2, r2, r3
	ldr	r3, [sp, #4]
	str	r2, [r3, #24]
	.loc 5 668 1
	nop
	add	sp, sp, #8
.LCFI44:
	@ sp needed
	bx	lr
.LFE180:
	.size	LPUART_EnableInterrupts, .-LPUART_EnableInterrupts
	.section	.text.LPUART_DisableInterrupts,"ax",%progbits
	.align	1
	.global	LPUART_DisableInterrupts
	.syntax unified
	.thumb
	.thumb_func
	.fpu fpv5-d16
	.type	LPUART_DisableInterrupts, %function
LPUART_DisableInterrupts:
.LFB181:
	.loc 5 684 1
	@ args = 0, pretend = 0, frame = 8
	@ frame_needed = 0, uses_anonymous_args = 0
	@ link register save eliminated.
	sub	sp, sp, #8
.LCFI45:
	str	r0, [sp, #4]
	str	r1, [sp]
	.loc 5 685 16
	ldr	r3, [sp, #4]
	ldr	r2, [r3, #16]
	.loc 5 685 27
	ldr	r3, [sp]
	lsls	r3, r3, #8
	.loc 5 685 33
	and	r3, r3, #49152
	.loc 5 685 19
	mvns	r3, r3
	.loc 5 685 16
	ands	r2, r2, r3
	ldr	r3, [sp, #4]
	str	r2, [r3, #16]
	.loc 5 687 23
	ldr	r3, [sp, #4]
	ldr	r2, [r3, #40]
	.loc 5 688 26
	ldr	r3, [sp]
	lsls	r3, r3, #8
	.loc 5 688 32
	and	r3, r3, #768
	.loc 5 688 18
	mvns	r3, r3
	.loc 5 687 82
	ands	r3, r3, r2
	bic	r2, r3, #196608
	.loc 5 687 16
	ldr	r3, [sp, #4]
	str	r2, [r3, #40]
	.loc 5 690 10
	ldr	r3, [sp]
	bic	r3, r3, #255
	str	r3, [sp]
	.loc 5 691 16
	ldr	r3, [sp, #4]
	ldr	r2, [r3, #24]
	.loc 5 691 19
	ldr	r3, [sp]
	mvns	r3, r3
	.loc 5 691 16
	ands	r2, r2, r3
	ldr	r3, [sp, #4]
	str	r2, [r3, #24]
	.loc 5 692 1
	nop
	add	sp, sp, #8
.LCFI46:
	@ sp needed
	bx	lr
.LFE181:
	.size	LPUART_DisableInterrupts, .-LPUART_DisableInterrupts
	.section	.text.LPUART_GetEnabledInterrupts,"ax",%progbits
	.align	1
	.global	LPUART_GetEnabledInterrupts
	.syntax unified
	.thumb
	.thumb_func
	.fpu fpv5-d16
	.type	LPUART_GetEnabledInterrupts, %function
LPUART_GetEnabledInterrupts:
.LFB182:
	.loc 5 715 1
	@ args = 0, pretend = 0, frame = 16
	@ frame_needed = 0, uses_anonymous_args = 0
	@ link register save eliminated.
	sub	sp, sp, #16
.LCFI47:
	str	r0, [sp, #4]
	.loc 5 717 17
	ldr	r3, [sp, #4]
	ldr	r3, [r3, #16]
	.loc 5 717 80
	lsrs	r3, r3, #8
	.loc 5 717 10
	and	r3, r3, #192
	str	r3, [sp, #12]
	.loc 5 719 18
	ldr	r3, [sp, #4]
	ldr	r3, [r3, #40]
	.loc 5 719 78
	lsrs	r3, r3, #8
	and	r3, r3, #3
	.loc 5 719 10
	ldr	r2, [sp, #12]
	orrs	r3, r3, r2
	str	r3, [sp, #12]
	.loc 5 721 18
	ldr	r3, [sp, #4]
	ldr	r2, [r3, #24]
	.loc 5 721 25
	ldr	r3, .L109
	ands	r3, r3, r2
	.loc 5 721 10
	ldr	r2, [sp, #12]
	orrs	r3, r3, r2
	str	r3, [sp, #12]
	.loc 5 723 12
	ldr	r3, [sp, #12]
	.loc 5 724 1
	mov	r0, r3
	add	sp, sp, #16
.LCFI48:
	@ sp needed
	bx	lr
.L110:
	.align	2
.L109:
	.word	267436032
.LFE182:
	.size	LPUART_GetEnabledInterrupts, .-LPUART_GetEnabledInterrupts
	.section	.text.LPUART_GetStatusFlags,"ax",%progbits
	.align	1
	.global	LPUART_GetStatusFlags
	.syntax unified
	.thumb
	.thumb_func
	.fpu fpv5-d16
	.type	LPUART_GetStatusFlags, %function
LPUART_GetStatusFlags:
.LFB183:
	.loc 5 744 1
	@ args = 0, pretend = 0, frame = 16
	@ frame_needed = 0, uses_anonymous_args = 0
	@ link register save eliminated.
	sub	sp, sp, #16
.LCFI49:
	str	r0, [sp, #4]
	.loc 5 746 10
	ldr	r3, [sp, #4]
	ldr	r3, [r3, #20]
	str	r3, [sp, #12]
	.loc 5 748 18
	ldr	r3, [sp, #4]
	ldr	r3, [r3, #40]
	.loc 5 749 115
	lsrs	r3, r3, #16
	and	r3, r3, #195
	.loc 5 748 10
	ldr	r2, [sp, #12]
	orrs	r3, r3, r2
	str	r3, [sp, #12]
	.loc 5 752 12
	ldr	r3, [sp, #12]
	.loc 5 753 1
	mov	r0, r3
	add	sp, sp, #16
.LCFI50:
	@ sp needed
	bx	lr
.LFE183:
	.size	LPUART_GetStatusFlags, .-LPUART_GetStatusFlags
	.section	.text.LPUART_ClearStatusFlags,"ax",%progbits
	.align	1
	.global	LPUART_ClearStatusFlags
	.syntax unified
	.thumb
	.thumb_func
	.fpu fpv5-d16
	.type	LPUART_ClearStatusFlags, %function
LPUART_ClearStatusFlags:
.LFB184:
	.loc 5 775 1
	@ args = 0, pretend = 0, frame = 16
	@ frame_needed = 0, uses_anonymous_args = 0
	push	{lr}
.LCFI51:
	sub	sp, sp, #20
.LCFI52:
	str	r0, [sp, #4]
	str	r1, [sp]
	.loc 5 779 10
	ldr	r3, [sp, #4]
	ldr	r3, [r3, #40]
	str	r3, [sp, #8]
	.loc 5 780 10
	ldr	r3, [sp, #8]
	bic	r3, r3, #196608
	str	r3, [sp, #8]
	.loc 5 781 19
	ldr	r3, [sp]
	lsls	r3, r3, #16
	.loc 5 781 26
	and	r3, r3, #196608
	.loc 5 781 10
	ldr	r2, [sp, #8]
	orrs	r3, r3, r2
	str	r3, [sp, #8]
	.loc 5 782 16
	ldr	r3, [sp, #4]
	ldr	r2, [sp, #8]
	str	r2, [r3, #40]
	.loc 5 784 10
	ldr	r3, [sp, #4]
	ldr	r3, [r3, #20]
	str	r3, [sp, #8]
	.loc 5 786 10
	ldr	r3, [sp, #8]
	bic	r3, r3, #-2147483648
	str	r3, [sp, #8]
	.loc 5 787 18
	ldr	r3, [sp]
	and	r3, r3, #-2147483648
	.loc 5 787 10
	ldr	r2, [sp, #8]
	orrs	r3, r3, r2
	str	r3, [sp, #8]
	.loc 5 789 10
	ldr	r2, [sp, #8]
	ldr	r3, .L117
	ands	r3, r3, r2
	str	r3, [sp, #8]
	.loc 5 791 18
	ldr	r2, [sp]
	ldr	r3, .L117+4
	ands	r3, r3, r2
	.loc 5 791 10
	ldr	r2, [sp, #8]
	orrs	r3, r3, r2
	str	r3, [sp, #8]
	.loc 5 794 10
	ldr	r3, [sp, #8]
	bic	r3, r3, #49152
	str	r3, [sp, #8]
	.loc 5 795 18
	ldr	r3, [sp]
	and	r3, r3, #49152
	.loc 5 795 10
	ldr	r2, [sp, #8]
	orrs	r3, r3, r2
	str	r3, [sp, #8]
	.loc 5 797 16
	ldr	r3, [sp, #4]
	ldr	r2, [sp, #8]
	str	r2, [r3, #20]
	.loc 5 799 16
	ldr	r0, [sp, #4]
	bl	LPUART_GetStatusFlags
	mov	r2, r0
	.loc 5 799 14
	ldr	r3, [sp]
	ands	r3, r3, r2
	.loc 5 799 8
	cmp	r3, #0
	beq	.L114
	.loc 5 805 16
	movw	r3, #1306
	str	r3, [sp, #12]
	b	.L115
.L114:
	.loc 5 809 16
	movs	r3, #0
	str	r3, [sp, #12]
.L115:
	.loc 5 812 12
	ldr	r3, [sp, #12]
	.loc 5 813 1
	mov	r0, r3
	add	sp, sp, #20
.LCFI53:
	@ sp needed
	ldr	pc, [sp], #4
.L118:
	.align	2
.L117:
	.word	-1075773441
	.word	1075773440
.LFE184:
	.size	LPUART_ClearStatusFlags, .-LPUART_ClearStatusFlags
	.section	.text.LPUART_WriteBlocking,"ax",%progbits
	.align	1
	.global	LPUART_WriteBlocking
	.syntax unified
	.thumb
	.thumb_func
	.fpu fpv5-d16
	.type	LPUART_WriteBlocking, %function
LPUART_WriteBlocking:
.LFB185:
	.loc 5 830 1
	@ args = 0, pretend = 0, frame = 16
	@ frame_needed = 0, uses_anonymous_args = 0
	push	{lr}
.LCFI54:
	sub	sp, sp, #20
.LCFI55:
	str	r0, [sp, #12]
	str	r1, [sp, #8]
	str	r2, [sp, #4]
	.loc 5 831 5
	ldr	r3, [sp, #8]
	cmp	r3, #0
	bne	.L121
	.loc 5 831 5 is_stmt 0 discriminator 1
	movw	r2, #831
	ldr	r1, .L124
	ldr	r0, .L124+4
	bl	__assert
	.loc 5 835 11 is_stmt 1 discriminator 1
	b	.L121
.L123:
	.loc 5 837 15
	nop
.L122:
	.loc 5 837 22 discriminator 1
	ldr	r3, [sp, #12]
	ldr	r3, [r3, #20]
	.loc 5 837 29 discriminator 1
	and	r3, r3, #8388608
	.loc 5 837 15 discriminator 1
	cmp	r3, #0
	beq	.L122
	.loc 5 840 28
	ldr	r3, [sp, #8]
	adds	r2, r3, #1
	str	r2, [sp, #8]
	.loc 5 840 22
	ldrb	r3, [r3]	@ zero_extendqisi2
	mov	r2, r3
	.loc 5 840 20
	ldr	r3, [sp, #12]
	str	r2, [r3, #28]
.L121:
	.loc 5 835 18
	ldr	r3, [sp, #4]
	subs	r2, r3, #1
	str	r2, [sp, #4]
	.loc 5 835 11
	cmp	r3, #0
	bne	.L123
	.loc 5 842 1
	nop
	add	sp, sp, #20
.LCFI56:
	@ sp needed
	ldr	pc, [sp], #4
.L125:
	.align	2
.L124:
	.word	.LC2
	.word	.LC5
.LFE185:
	.size	LPUART_WriteBlocking, .-LPUART_WriteBlocking
	.section	.text.LPUART_ReadBlocking,"ax",%progbits
	.align	1
	.global	LPUART_ReadBlocking
	.syntax unified
	.thumb
	.thumb_func
	.fpu fpv5-d16
	.type	LPUART_ReadBlocking, %function
LPUART_ReadBlocking:
.LFB186:
	.loc 5 860 1
	@ args = 0, pretend = 0, frame = 32
	@ frame_needed = 0, uses_anonymous_args = 0
	push	{lr}
.LCFI57:
	sub	sp, sp, #36
.LCFI58:
	str	r0, [sp, #12]
	str	r1, [sp, #8]
	str	r2, [sp, #4]
	.loc 5 861 5
	ldr	r3, [sp, #8]
	cmp	r3, #0
	bne	.L127
	.loc 5 861 5 is_stmt 0 discriminator 1
	movw	r2, #861
	ldr	r1, .L140
	ldr	r0, .L140+4
	bl	__assert
.L127:
	.loc 5 865 14 is_stmt 1
	ldr	r3, [sp, #12]
	ldr	r3, [r3, #24]
	str	r3, [sp, #28]
	.loc 5 867 16
	ldr	r3, [sp, #28]
	and	r3, r3, #2048
	.loc 5 867 39
	cmp	r3, #0
	bne	.L128
	.loc 5 867 51 discriminator 2
	ldr	r3, [sp, #28]
	and	r3, r3, #16
	.loc 5 867 39 discriminator 2
	cmp	r3, #0
	bne	.L129
	.loc 5 867 83 discriminator 3
	ldr	r3, [sp, #28]
	and	r3, r3, #2
	.loc 5 867 74 discriminator 3
	cmp	r3, #0
	beq	.L129
.L128:
	.loc 5 867 39 discriminator 5
	movs	r3, #1
	b	.L130
.L129:
	.loc 5 867 39 is_stmt 0 discriminator 6
	movs	r3, #0
.L130:
	.loc 5 866 10 is_stmt 1
	strb	r3, [sp, #27]
	ldrb	r3, [sp, #27]
	and	r3, r3, #1
	strb	r3, [sp, #27]
	.loc 5 870 11
	b	.L131
.L137:
	.loc 5 878 26
	ldr	r0, [sp, #12]
	bl	LPUART_GetStatusFlags
	str	r0, [sp, #20]
	.loc 5 880 28
	ldr	r3, [sp, #20]
	and	r3, r3, #524288
	.loc 5 880 16
	cmp	r3, #0
	beq	.L133
	.loc 5 882 17
	mov	r1, #524288
	ldr	r0, [sp, #12]
	bl	LPUART_ClearStatusFlags
	.loc 5 883 24
	movw	r3, #1309
	b	.L134
.L133:
	.loc 5 886 28
	ldr	r3, [sp, #20]
	and	r3, r3, #262144
	.loc 5 886 16
	cmp	r3, #0
	beq	.L135
	.loc 5 888 17
	mov	r1, #262144
	ldr	r0, [sp, #12]
	bl	LPUART_ClearStatusFlags
	.loc 5 889 24
	movw	r3, #1310
	b	.L134
.L135:
	.loc 5 892 28
	ldr	r3, [sp, #20]
	and	r3, r3, #131072
	.loc 5 892 16
	cmp	r3, #0
	beq	.L136
	.loc 5 894 17
	mov	r1, #131072
	ldr	r0, [sp, #12]
	bl	LPUART_ClearStatusFlags
	.loc 5 895 24
	movw	r3, #1311
	b	.L134
.L136:
	.loc 5 898 28
	ldr	r3, [sp, #20]
	and	r3, r3, #65536
	.loc 5 898 16
	cmp	r3, #0
	beq	.L132
	.loc 5 900 17
	mov	r1, #65536
	ldr	r0, [sp, #12]
	bl	LPUART_ClearStatusFlags
	.loc 5 901 24
	mov	r3, #1312
	b	.L134
.L132:
	.loc 5 873 27
	ldr	r3, [sp, #12]
	ldr	r3, [r3, #44]
	.loc 5 873 64
	lsrs	r3, r3, #24
	and	r3, r3, #7
	.loc 5 873 15
	cmp	r3, #0
	beq	.L137
	.loc 5 905 12
	ldrb	r3, [sp, #27]	@ zero_extendqisi2
	cmp	r3, #0
	beq	.L138
	.loc 5 907 30
	ldr	r3, [sp, #12]
	ldr	r3, [r3, #28]
	.loc 5 907 37
	uxtb	r2, r3
	.loc 5 907 19
	ldr	r3, [sp, #8]
	adds	r1, r3, #1
	str	r1, [sp, #8]
	.loc 5 907 37
	and	r2, r2, #127
	uxtb	r2, r2
	.loc 5 907 23
	strb	r2, [r3]
	b	.L131
.L138:
	.loc 5 911 29
	ldr	r3, [sp, #12]
	ldr	r1, [r3, #28]
	.loc 5 911 19
	ldr	r3, [sp, #8]
	adds	r2, r3, #1
	str	r2, [sp, #8]
	.loc 5 911 23
	uxtb	r2, r1
	strb	r2, [r3]
.L131:
	.loc 5 870 18
	ldr	r3, [sp, #4]
	subs	r2, r3, #1
	str	r2, [sp, #4]
	.loc 5 870 11
	cmp	r3, #0
	bne	.L132
	.loc 5 918 12
	movs	r3, #0
.L134:
	.loc 5 919 1
	mov	r0, r3
	add	sp, sp, #36
.LCFI59:
	@ sp needed
	ldr	pc, [sp], #4
.L141:
	.align	2
.L140:
	.word	.LC2
	.word	.LC5
.LFE186:
	.size	LPUART_ReadBlocking, .-LPUART_ReadBlocking
	.section	.text.LPUART_TransferCreateHandle,"ax",%progbits
	.align	1
	.global	LPUART_TransferCreateHandle
	.syntax unified
	.thumb
	.thumb_func
	.fpu fpv5-d16
	.type	LPUART_TransferCreateHandle, %function
LPUART_TransferCreateHandle:
.LFB187:
	.loc 5 943 1
	@ args = 0, pretend = 0, frame = 32
	@ frame_needed = 0, uses_anonymous_args = 0
	push	{lr}
.LCFI60:
	sub	sp, sp, #36
.LCFI61:
	str	r0, [sp, #12]
	str	r1, [sp, #8]
	str	r2, [sp, #4]
	str	r3, [sp]
	.loc 5 944 5
	ldr	r3, [sp, #8]
	cmp	r3, #0
	bne	.L143
	.loc 5 944 5 is_stmt 0 discriminator 1
	mov	r2, #944
	ldr	r1, .L147
	ldr	r0, .L147+4
	bl	__assert
.L143:
	.loc 5 948 14 is_stmt 1
	ldr	r3, [sp, #12]
	ldr	r3, [r3, #24]
	str	r3, [sp, #28]
	.loc 5 950 16
	ldr	r3, [sp, #28]
	and	r3, r3, #2048
	.loc 5 950 39
	cmp	r3, #0
	bne	.L144
	.loc 5 950 51 discriminator 2
	ldr	r3, [sp, #28]
	and	r3, r3, #16
	.loc 5 950 39 discriminator 2
	cmp	r3, #0
	bne	.L145
	.loc 5 950 83 discriminator 3
	ldr	r3, [sp, #28]
	and	r3, r3, #2
	.loc 5 950 74 discriminator 3
	cmp	r3, #0
	beq	.L145
.L144:
	.loc 5 950 39 discriminator 5
	movs	r3, #1
	b	.L146
.L145:
	.loc 5 950 39 is_stmt 0 discriminator 6
	movs	r3, #0
.L146:
	.loc 5 949 10 is_stmt 1
	strb	r3, [sp, #27]
	ldrb	r3, [sp, #27]
	and	r3, r3, #1
	strb	r3, [sp, #27]
	.loc 5 954 5
	movs	r2, #48
	movs	r1, #0
	ldr	r0, [sp, #8]
	bl	memset
	.loc 5 957 21
	ldr	r3, [sp, #8]
	movs	r2, #2
	strb	r2, [r3, #45]
	.loc 5 958 21
	ldr	r3, [sp, #8]
	movs	r2, #0
	strb	r2, [r3, #44]
	.loc 5 961 22
	ldr	r3, [sp, #8]
	ldr	r2, [sp, #4]
	str	r2, [r3, #36]
	.loc 5 962 22
	ldr	r3, [sp, #8]
	ldr	r2, [sp]
	str	r2, [r3, #40]
	.loc 5 966 29
	ldr	r3, [sp, #8]
	ldrb	r2, [sp, #27]
	strb	r2, [r3, #46]
	.loc 5 970 16
	ldr	r0, [sp, #12]
	bl	LPUART_GetInstance
	str	r0, [sp, #20]
	.loc 5 973 30
	ldr	r1, .L147+8
	ldr	r3, [sp, #20]
	ldr	r2, [sp, #8]
	str	r2, [r1, r3, lsl #2]
	.loc 5 975 17
	ldr	r3, .L147+12
	ldr	r2, .L147+16
	str	r2, [r3]
	.loc 5 982 5
	ldr	r2, .L147+20
	ldr	r3, [sp, #20]
	ldrsh	r3, [r2, r3, lsl #1]
	mov	r0, r3
	bl	EnableIRQ
	.loc 5 984 1
	nop
	add	sp, sp, #36
.LCFI62:
	@ sp needed
	ldr	pc, [sp], #4
.L148:
	.align	2
.L147:
	.word	.LC2
	.word	.LC4
	.word	s_lpuartHandle
	.word	s_lpuartIsr
	.word	LPUART_TransferHandleIRQ
	.word	s_lpuartIRQ
.LFE187:
	.size	LPUART_TransferCreateHandle, .-LPUART_TransferCreateHandle
	.section .rodata
	.align	2
.LC11:
	.ascii	"ringBuffer\000"
	.section	.text.LPUART_TransferStartRingBuffer,"ax",%progbits
	.align	1
	.global	LPUART_TransferStartRingBuffer
	.syntax unified
	.thumb
	.thumb_func
	.fpu fpv5-d16
	.type	LPUART_TransferStartRingBuffer, %function
LPUART_TransferStartRingBuffer:
.LFB188:
	.loc 5 1007 1
	@ args = 0, pretend = 0, frame = 16
	@ frame_needed = 0, uses_anonymous_args = 0
	push	{lr}
.LCFI63:
	sub	sp, sp, #20
.LCFI64:
	str	r0, [sp, #12]
	str	r1, [sp, #8]
	str	r2, [sp, #4]
	str	r3, [sp]
	.loc 5 1008 5
	ldr	r3, [sp, #8]
	cmp	r3, #0
	bne	.L150
	.loc 5 1008 5 is_stmt 0 discriminator 1
	mov	r2, #1008
	ldr	r1, .L152
	ldr	r0, .L152+4
	bl	__assert
.L150:
	.loc 5 1009 5 is_stmt 1
	ldr	r3, [sp, #4]
	cmp	r3, #0
	bne	.L151
	.loc 5 1009 5 is_stmt 0 discriminator 1
	movw	r2, #1009
	ldr	r1, .L152
	ldr	r0, .L152+8
	bl	__assert
.L151:
	.loc 5 1012 26 is_stmt 1
	ldr	r3, [sp, #8]
	ldr	r2, [sp, #4]
	str	r2, [r3, #24]
	.loc 5 1013 30
	ldr	r3, [sp, #8]
	ldr	r2, [sp]
	str	r2, [r3, #28]
	.loc 5 1014 30
	ldr	r3, [sp, #8]
	movs	r2, #0
	strh	r2, [r3, #32]	@ movhi
	.loc 5 1015 30
	ldr	r3, [sp, #8]
	movs	r2, #0
	strh	r2, [r3, #34]	@ movhi
	.loc 5 1018 5
	mov	r1, #136314880
	ldr	r0, [sp, #12]
	bl	LPUART_EnableInterrupts
	.loc 5 1019 1
	nop
	add	sp, sp, #20
.LCFI65:
	@ sp needed
	ldr	pc, [sp], #4
.L153:
	.align	2
.L152:
	.word	.LC2
	.word	.LC4
	.word	.LC11
.LFE188:
	.size	LPUART_TransferStartRingBuffer, .-LPUART_TransferStartRingBuffer
	.section	.text.LPUART_TransferStopRingBuffer,"ax",%progbits
	.align	1
	.global	LPUART_TransferStopRingBuffer
	.syntax unified
	.thumb
	.thumb_func
	.fpu fpv5-d16
	.type	LPUART_TransferStopRingBuffer, %function
LPUART_TransferStopRingBuffer:
.LFB189:
	.loc 5 1030 1
	@ args = 0, pretend = 0, frame = 8
	@ frame_needed = 0, uses_anonymous_args = 0
	push	{lr}
.LCFI66:
	sub	sp, sp, #12
.LCFI67:
	str	r0, [sp, #4]
	str	r1, [sp]
	.loc 5 1031 5
	ldr	r3, [sp]
	cmp	r3, #0
	bne	.L155
	.loc 5 1031 5 is_stmt 0 discriminator 1
	movw	r2, #1031
	ldr	r1, .L157
	ldr	r0, .L157+4
	bl	__assert
.L155:
	.loc 5 1033 15 is_stmt 1
	ldr	r3, [sp]
	ldrb	r3, [r3, #45]
	uxtb	r3, r3
	.loc 5 1033 8
	cmp	r3, #2
	bne	.L156
	.loc 5 1035 9
	mov	r1, #136314880
	ldr	r0, [sp, #4]
	bl	LPUART_DisableInterrupts
.L156:
	.loc 5 1038 26
	ldr	r3, [sp]
	movs	r2, #0
	str	r2, [r3, #24]
	.loc 5 1039 30
	ldr	r3, [sp]
	movs	r2, #0
	str	r2, [r3, #28]
	.loc 5 1040 30
	ldr	r3, [sp]
	movs	r2, #0
	strh	r2, [r3, #32]	@ movhi
	.loc 5 1041 30
	ldr	r3, [sp]
	movs	r2, #0
	strh	r2, [r3, #34]	@ movhi
	.loc 5 1042 1
	nop
	add	sp, sp, #12
.LCFI68:
	@ sp needed
	ldr	pc, [sp], #4
.L158:
	.align	2
.L157:
	.word	.LC2
	.word	.LC4
.LFE189:
	.size	LPUART_TransferStopRingBuffer, .-LPUART_TransferStopRingBuffer
	.section .rodata
	.align	2
.LC12:
	.ascii	"xfer\000"
	.align	2
.LC13:
	.ascii	"xfer->data\000"
	.align	2
.LC14:
	.ascii	"xfer->dataSize\000"
	.section	.text.LPUART_TransferSendNonBlocking,"ax",%progbits
	.align	1
	.global	LPUART_TransferSendNonBlocking
	.syntax unified
	.thumb
	.thumb_func
	.fpu fpv5-d16
	.type	LPUART_TransferSendNonBlocking, %function
LPUART_TransferSendNonBlocking:
.LFB190:
	.loc 5 1064 1
	@ args = 0, pretend = 0, frame = 24
	@ frame_needed = 0, uses_anonymous_args = 0
	push	{lr}
.LCFI69:
	sub	sp, sp, #28
.LCFI70:
	str	r0, [sp, #12]
	str	r1, [sp, #8]
	str	r2, [sp, #4]
	.loc 5 1065 5
	ldr	r3, [sp, #8]
	cmp	r3, #0
	bne	.L160
	.loc 5 1065 5 is_stmt 0 discriminator 1
	movw	r2, #1065
	ldr	r1, .L167
	ldr	r0, .L167+4
	bl	__assert
.L160:
	.loc 5 1066 5 is_stmt 1
	ldr	r3, [sp, #4]
	cmp	r3, #0
	bne	.L161
	.loc 5 1066 5 is_stmt 0 discriminator 1
	movw	r2, #1066
	ldr	r1, .L167
	ldr	r0, .L167+8
	bl	__assert
.L161:
	.loc 5 1067 5 is_stmt 1
	ldr	r3, [sp, #4]
	ldr	r3, [r3]
	cmp	r3, #0
	bne	.L162
	.loc 5 1067 5 is_stmt 0 discriminator 1
	movw	r2, #1067
	ldr	r1, .L167
	ldr	r0, .L167+12
	bl	__assert
.L162:
	.loc 5 1068 5 is_stmt 1
	ldr	r3, [sp, #4]
	ldr	r3, [r3, #4]
	cmp	r3, #0
	bne	.L163
	.loc 5 1068 5 is_stmt 0 discriminator 1
	movw	r2, #1068
	ldr	r1, .L167
	ldr	r0, .L167+16
	bl	__assert
.L163:
	.loc 5 1073 33 is_stmt 1
	ldr	r3, [sp, #8]
	ldrb	r3, [r3, #44]
	uxtb	r3, r3
	.loc 5 1073 8
	cmp	r3, #1
	bne	.L164
	.loc 5 1075 16
	movw	r3, #1300
	str	r3, [sp, #20]
	b	.L165
.L164:
	.loc 5 1079 30
	ldr	r3, [sp, #4]
	ldr	r2, [r3]
	.loc 5 1079 24
	ldr	r3, [sp, #8]
	str	r2, [r3]
	.loc 5 1080 34
	ldr	r3, [sp, #4]
	ldr	r2, [r3, #4]
	.loc 5 1080 28
	ldr	r3, [sp, #8]
	str	r2, [r3, #4]
	.loc 5 1081 37
	ldr	r3, [sp, #4]
	ldr	r2, [r3, #4]
	.loc 5 1081 31
	ldr	r3, [sp, #8]
	str	r2, [r3, #8]
	.loc 5 1082 25
	ldr	r3, [sp, #8]
	movs	r2, #1
	strb	r2, [r3, #44]
	.loc 5 1085 9
	mov	r1, #8388608
	ldr	r0, [sp, #12]
	bl	LPUART_EnableInterrupts
	.loc 5 1087 16
	movs	r3, #0
	str	r3, [sp, #20]
.L165:
	.loc 5 1090 12
	ldr	r3, [sp, #20]
	.loc 5 1091 1
	mov	r0, r3
	add	sp, sp, #28
.LCFI71:
	@ sp needed
	ldr	pc, [sp], #4
.L168:
	.align	2
.L167:
	.word	.LC2
	.word	.LC4
	.word	.LC12
	.word	.LC13
	.word	.LC14
.LFE190:
	.size	LPUART_TransferSendNonBlocking, .-LPUART_TransferSendNonBlocking
	.section	.text.LPUART_TransferAbortSend,"ax",%progbits
	.align	1
	.global	LPUART_TransferAbortSend
	.syntax unified
	.thumb
	.thumb_func
	.fpu fpv5-d16
	.type	LPUART_TransferAbortSend, %function
LPUART_TransferAbortSend:
.LFB191:
	.loc 5 1103 1
	@ args = 0, pretend = 0, frame = 8
	@ frame_needed = 0, uses_anonymous_args = 0
	push	{lr}
.LCFI72:
	sub	sp, sp, #12
.LCFI73:
	str	r0, [sp, #4]
	str	r1, [sp]
	.loc 5 1104 5
	ldr	r3, [sp]
	cmp	r3, #0
	bne	.L170
	.loc 5 1104 5 is_stmt 0 discriminator 1
	mov	r2, #1104
	ldr	r1, .L171
	ldr	r0, .L171+4
	bl	__assert
.L170:
	.loc 5 1106 5 is_stmt 1
	mov	r1, #12582912
	ldr	r0, [sp, #4]
	bl	LPUART_DisableInterrupts
	.loc 5 1108 24
	ldr	r3, [sp]
	movs	r2, #0
	str	r2, [r3, #4]
	.loc 5 1109 21
	ldr	r3, [sp]
	movs	r2, #0
	strb	r2, [r3, #44]
	.loc 5 1110 1
	nop
	add	sp, sp, #12
.LCFI74:
	@ sp needed
	ldr	pc, [sp], #4
.L172:
	.align	2
.L171:
	.word	.LC2
	.word	.LC4
.LFE191:
	.size	LPUART_TransferAbortSend, .-LPUART_TransferAbortSend
	.section .rodata
	.align	2
.LC15:
	.ascii	"count\000"
	.section	.text.LPUART_TransferGetSendCount,"ax",%progbits
	.align	1
	.global	LPUART_TransferGetSendCount
	.syntax unified
	.thumb
	.thumb_func
	.fpu fpv5-d16
	.type	LPUART_TransferGetSendCount, %function
LPUART_TransferGetSendCount:
.LFB192:
	.loc 5 1126 1
	@ args = 0, pretend = 0, frame = 16
	@ frame_needed = 0, uses_anonymous_args = 0
	push	{lr}
.LCFI75:
	sub	sp, sp, #20
.LCFI76:
	str	r0, [sp, #12]
	str	r1, [sp, #8]
	str	r2, [sp, #4]
	.loc 5 1127 5
	ldr	r3, [sp, #8]
	cmp	r3, #0
	bne	.L174
	.loc 5 1127 5 is_stmt 0 discriminator 1
	movw	r2, #1127
	ldr	r1, .L178
	ldr	r0, .L178+4
	bl	__assert
.L174:
	.loc 5 1128 5 is_stmt 1
	ldr	r3, [sp, #4]
	cmp	r3, #0
	bne	.L175
	.loc 5 1128 5 is_stmt 0 discriminator 1
	mov	r2, #1128
	ldr	r1, .L178
	ldr	r0, .L178+8
	bl	__assert
.L175:
	.loc 5 1130 33 is_stmt 1
	ldr	r3, [sp, #8]
	ldrb	r3, [r3, #44]
	uxtb	r3, r3
	.loc 5 1130 8
	cmp	r3, #0
	bne	.L176
	.loc 5 1132 16
	movs	r3, #6
	b	.L177
.L176:
	.loc 5 1135 20
	ldr	r3, [sp, #8]
	ldr	r2, [r3, #8]
	.loc 5 1135 44
	ldr	r3, [sp, #8]
	ldr	r3, [r3, #4]
	.loc 5 1135 36
	subs	r2, r2, r3
	.loc 5 1135 12
	ldr	r3, [sp, #4]
	str	r2, [r3]
	.loc 5 1137 12
	movs	r3, #0
.L177:
	.loc 5 1138 1
	mov	r0, r3
	add	sp, sp, #20
.LCFI77:
	@ sp needed
	ldr	pc, [sp], #4
.L179:
	.align	2
.L178:
	.word	.LC2
	.word	.LC4
	.word	.LC15
.LFE192:
	.size	LPUART_TransferGetSendCount, .-LPUART_TransferGetSendCount
	.section	.text.LPUART_TransferReceiveNonBlocking,"ax",%progbits
	.align	1
	.global	LPUART_TransferReceiveNonBlocking
	.syntax unified
	.thumb
	.thumb_func
	.fpu fpv5-d16
	.type	LPUART_TransferReceiveNonBlocking, %function
LPUART_TransferReceiveNonBlocking:
.LFB193:
	.loc 5 1170 1
	@ args = 0, pretend = 0, frame = 40
	@ frame_needed = 0, uses_anonymous_args = 0
	push	{r4, lr}
.LCFI78:
	sub	sp, sp, #40
.LCFI79:
	str	r0, [sp, #12]
	str	r1, [sp, #8]
	str	r2, [sp, #4]
	str	r3, [sp]
	.loc 5 1171 5
	ldr	r3, [sp, #8]
	cmp	r3, #0
	bne	.L181
	.loc 5 1171 5 is_stmt 0 discriminator 1
	movw	r2, #1171
	ldr	r1, .L198
	ldr	r0, .L198+4
	bl	__assert
.L181:
	.loc 5 1172 5 is_stmt 1
	ldr	r3, [sp, #4]
	cmp	r3, #0
	bne	.L182
	.loc 5 1172 5 is_stmt 0 discriminator 1
	movw	r2, #1172
	ldr	r1, .L198
	ldr	r0, .L198+8
	bl	__assert
.L182:
	.loc 5 1173 5 is_stmt 1
	ldr	r3, [sp, #4]
	ldr	r3, [r3]
	cmp	r3, #0
	bne	.L183
	.loc 5 1173 5 is_stmt 0 discriminator 1
	movw	r2, #1173
	ldr	r1, .L198
	ldr	r0, .L198+12
	bl	__assert
.L183:
	.loc 5 1174 5 is_stmt 1
	ldr	r3, [sp, #4]
	ldr	r3, [r3, #4]
	cmp	r3, #0
	bne	.L184
	.loc 5 1174 5 is_stmt 0 discriminator 1
	movw	r2, #1174
	ldr	r1, .L198
	ldr	r0, .L198+16
	bl	__assert
.L184:
	.loc 5 1179 12 is_stmt 1
	movs	r3, #0
	str	r3, [sp, #20]
	.loc 5 1195 33
	ldr	r3, [sp, #8]
	ldrb	r3, [r3, #45]
	uxtb	r3, r3
	.loc 5 1195 8
	cmp	r3, #3
	bne	.L185
	.loc 5 1197 16
	movw	r3, #1301
	str	r3, [sp, #32]
	b	.L186
.L185:
	.loc 5 1201 24
	ldr	r3, [sp, #4]
	ldr	r3, [r3, #4]
	str	r3, [sp, #28]
	.loc 5 1202 30
	movs	r3, #0
	str	r3, [sp, #24]
	.loc 5 1205 19
	ldr	r3, [sp, #8]
	ldr	r3, [r3, #24]
	.loc 5 1205 12
	cmp	r3, #0
	beq	.L187
	.loc 5 1208 13
	mov	r1, #2097152
	ldr	r0, [sp, #12]
	bl	LPUART_DisableInterrupts
	.loc 5 1211 27
	ldr	r1, [sp, #8]
	ldr	r0, [sp, #12]
	bl	LPUART_TransferGetRxRingBufferLength
	str	r0, [sp, #20]
	.loc 5 1213 16
	ldr	r3, [sp, #20]
	cmp	r3, #0
	beq	.L188
	.loc 5 1215 29
	ldr	r2, [sp, #20]
	ldr	r3, [sp, #28]
	cmp	r3, r2
	it	cs
	movcs	r3, r2
	str	r3, [sp, #20]
	.loc 5 1217 32
	ldr	r2, [sp, #28]
	ldr	r3, [sp, #20]
	subs	r3, r2, r3
	str	r3, [sp, #28]
	.loc 5 1220 24
	movs	r3, #0
	str	r3, [sp, #36]
	.loc 5 1220 17
	b	.L189
.L192:
	.loc 5 1222 64
	ldr	r3, [sp, #8]
	ldr	r3, [r3, #24]
	.loc 5 1222 85
	ldr	r2, [sp, #8]
	ldrh	r2, [r2, #34]	@ movhi
	uxth	r2, r2
	.loc 5 1222 78
	add	r2, r2, r3
	.loc 5 1222 25
	ldr	r3, [sp, #4]
	ldr	r1, [r3]
	.loc 5 1222 52
	ldr	r3, [sp, #24]
	adds	r0, r3, #1
	str	r0, [sp, #24]
	.loc 5 1222 31
	add	r3, r3, r1
	.loc 5 1222 78
	ldrb	r2, [r2]	@ zero_extendqisi2
	.loc 5 1222 56
	strb	r2, [r3]
	.loc 5 1225 31
	ldr	r3, [sp, #8]
	ldrh	r3, [r3, #34]	@ movhi
	uxth	r3, r3
	.loc 5 1225 50
	adds	r2, r3, #1
	.loc 5 1225 64
	ldr	r3, [sp, #8]
	ldr	r3, [r3, #28]
	.loc 5 1225 24
	cmp	r2, r3
	bne	.L190
	.loc 5 1227 50
	ldr	r3, [sp, #8]
	movs	r2, #0
	strh	r2, [r3, #34]	@ movhi
	b	.L191
.L190:
	.loc 5 1231 31
	ldr	r3, [sp, #8]
	ldrh	r3, [r3, #34]	@ movhi
	uxth	r3, r3
	.loc 5 1231 49
	adds	r3, r3, #1
	uxth	r2, r3
	ldr	r3, [sp, #8]
	strh	r2, [r3, #34]	@ movhi
.L191:
	.loc 5 1220 48 discriminator 2
	ldr	r3, [sp, #36]
	adds	r3, r3, #1
	str	r3, [sp, #36]
.L189:
	.loc 5 1220 17 discriminator 1
	ldr	r2, [sp, #36]
	ldr	r3, [sp, #20]
	cmp	r2, r3
	bcc	.L192
.L188:
	.loc 5 1237 16
	ldr	r3, [sp, #28]
	cmp	r3, #0
	beq	.L193
	.loc 5 1240 38
	ldr	r3, [sp, #4]
	ldr	r2, [r3]
	.loc 5 1240 45
	ldr	r3, [sp, #24]
	add	r2, r2, r3
	.loc 5 1240 32
	ldr	r3, [sp, #8]
	str	r2, [r3, #12]
	.loc 5 1241 36
	ldr	r3, [sp, #8]
	ldr	r2, [sp, #28]
	str	r2, [r3, #16]
	.loc 5 1242 39
	ldr	r3, [sp, #8]
	ldr	r2, [sp, #28]
	str	r2, [r3, #20]
	.loc 5 1243 33
	ldr	r3, [sp, #8]
	movs	r2, #3
	strb	r2, [r3, #45]
.L193:
	.loc 5 1246 13
	mov	r1, #2097152
	ldr	r0, [sp, #12]
	bl	LPUART_EnableInterrupts
	.loc 5 1249 16
	ldr	r3, [sp, #28]
	cmp	r3, #0
	bne	.L195
	.loc 5 1251 27
	ldr	r3, [sp, #8]
	ldr	r3, [r3, #36]
	.loc 5 1251 20
	cmp	r3, #0
	beq	.L195
	.loc 5 1253 27
	ldr	r3, [sp, #8]
	ldr	r4, [r3, #36]
	.loc 5 1253 21
	ldr	r3, [sp, #8]
	ldr	r3, [r3, #40]
	movw	r2, #1303
	ldr	r1, [sp, #8]
	ldr	r0, [sp, #12]
	blx	r4
.LVL0:
	b	.L195
.L187:
	.loc 5 1260 34
	ldr	r3, [sp, #4]
	ldr	r2, [r3]
	.loc 5 1260 41
	ldr	r3, [sp, #24]
	add	r2, r2, r3
	.loc 5 1260 28
	ldr	r3, [sp, #8]
	str	r2, [r3, #12]
	.loc 5 1261 32
	ldr	r3, [sp, #8]
	ldr	r2, [sp, #28]
	str	r2, [r3, #16]
	.loc 5 1262 35
	ldr	r3, [sp, #8]
	ldr	r2, [sp, #28]
	str	r2, [r3, #20]
	.loc 5 1263 29
	ldr	r3, [sp, #8]
	movs	r2, #3
	strb	r2, [r3, #45]
	.loc 5 1266 13
	mov	r1, #137363456
	ldr	r0, [sp, #12]
	bl	LPUART_EnableInterrupts
.L195:
	.loc 5 1271 12
	ldr	r3, [sp]
	cmp	r3, #0
	beq	.L196
	.loc 5 1273 28
	ldr	r3, [sp]
	ldr	r2, [sp, #24]
	str	r2, [r3]
.L196:
	.loc 5 1276 16
	movs	r3, #0
	str	r3, [sp, #32]
.L186:
	.loc 5 1279 12
	ldr	r3, [sp, #32]
	.loc 5 1280 1
	mov	r0, r3
	add	sp, sp, #40
.LCFI80:
	@ sp needed
	pop	{r4, pc}
.L199:
	.align	2
.L198:
	.word	.LC2
	.word	.LC4
	.word	.LC12
	.word	.LC13
	.word	.LC14
.LFE193:
	.size	LPUART_TransferReceiveNonBlocking, .-LPUART_TransferReceiveNonBlocking
	.section	.text.LPUART_TransferAbortReceive,"ax",%progbits
	.align	1
	.global	LPUART_TransferAbortReceive
	.syntax unified
	.thumb
	.thumb_func
	.fpu fpv5-d16
	.type	LPUART_TransferAbortReceive, %function
LPUART_TransferAbortReceive:
.LFB194:
	.loc 5 1292 1
	@ args = 0, pretend = 0, frame = 8
	@ frame_needed = 0, uses_anonymous_args = 0
	push	{lr}
.LCFI81:
	sub	sp, sp, #12
.LCFI82:
	str	r0, [sp, #4]
	str	r1, [sp]
	.loc 5 1293 5
	ldr	r3, [sp]
	cmp	r3, #0
	bne	.L201
	.loc 5 1293 5 is_stmt 0 discriminator 1
	movw	r2, #1293
	ldr	r1, .L203
	ldr	r0, .L203+4
	bl	__assert
.L201:
	.loc 5 1296 16 is_stmt 1
	ldr	r3, [sp]
	ldr	r3, [r3, #24]
	.loc 5 1296 8
	cmp	r3, #0
	bne	.L202
	.loc 5 1299 9
	mov	r1, #137363456
	ldr	r0, [sp, #4]
	bl	LPUART_DisableInterrupts
.L202:
	.loc 5 1303 24
	ldr	r3, [sp]
	movs	r2, #0
	str	r2, [r3, #16]
	.loc 5 1304 21
	ldr	r3, [sp]
	movs	r2, #2
	strb	r2, [r3, #45]
	.loc 5 1305 1
	nop
	add	sp, sp, #12
.LCFI83:
	@ sp needed
	ldr	pc, [sp], #4
.L204:
	.align	2
.L203:
	.word	.LC2
	.word	.LC4
.LFE194:
	.size	LPUART_TransferAbortReceive, .-LPUART_TransferAbortReceive
	.section	.text.LPUART_TransferGetReceiveCount,"ax",%progbits
	.align	1
	.global	LPUART_TransferGetReceiveCount
	.syntax unified
	.thumb
	.thumb_func
	.fpu fpv5-d16
	.type	LPUART_TransferGetReceiveCount, %function
LPUART_TransferGetReceiveCount:
.LFB195:
	.loc 5 1320 1
	@ args = 0, pretend = 0, frame = 16
	@ frame_needed = 0, uses_anonymous_args = 0
	push	{lr}
.LCFI84:
	sub	sp, sp, #20
.LCFI85:
	str	r0, [sp, #12]
	str	r1, [sp, #8]
	str	r2, [sp, #4]
	.loc 5 1321 5
	ldr	r3, [sp, #8]
	cmp	r3, #0
	bne	.L206
	.loc 5 1321 5 is_stmt 0 discriminator 1
	movw	r2, #1321
	ldr	r1, .L210
	ldr	r0, .L210+4
	bl	__assert
.L206:
	.loc 5 1322 5 is_stmt 1
	ldr	r3, [sp, #4]
	cmp	r3, #0
	bne	.L207
	.loc 5 1322 5 is_stmt 0 discriminator 1
	movw	r2, #1322
	ldr	r1, .L210
	ldr	r0, .L210+8
	bl	__assert
.L207:
	.loc 5 1324 33 is_stmt 1
	ldr	r3, [sp, #8]
	ldrb	r3, [r3, #45]
	uxtb	r3, r3
	.loc 5 1324 8
	cmp	r3, #2
	bne	.L208
	.loc 5 1326 16
	movs	r3, #6
	b	.L209
.L208:
	.loc 5 1329 20
	ldr	r3, [sp, #8]
	ldr	r2, [r3, #20]
	.loc 5 1329 44
	ldr	r3, [sp, #8]
	ldr	r3, [r3, #16]
	.loc 5 1329 36
	subs	r2, r2, r3
	.loc 5 1329 12
	ldr	r3, [sp, #4]
	str	r2, [r3]
	.loc 5 1331 12
	movs	r3, #0
.L209:
	.loc 5 1332 1
	mov	r0, r3
	add	sp, sp, #20
.LCFI86:
	@ sp needed
	ldr	pc, [sp], #4
.L211:
	.align	2
.L210:
	.word	.LC2
	.word	.LC4
	.word	.LC15
.LFE195:
	.size	LPUART_TransferGetReceiveCount, .-LPUART_TransferGetReceiveCount
	.section	.text.LPUART_TransferHandleIRQ,"ax",%progbits
	.align	1
	.global	LPUART_TransferHandleIRQ
	.syntax unified
	.thumb
	.thumb_func
	.fpu fpv5-d16
	.type	LPUART_TransferHandleIRQ, %function
LPUART_TransferHandleIRQ:
.LFB196:
	.loc 5 1343 1
	@ args = 0, pretend = 0, frame = 24
	@ frame_needed = 0, uses_anonymous_args = 0
	push	{r4, lr}
.LCFI87:
	sub	sp, sp, #24
.LCFI88:
	str	r0, [sp, #4]
	str	r1, [sp]
	.loc 5 1344 5
	ldr	r3, [sp]
	cmp	r3, #0
	bne	.L213
	.loc 5 1344 5 is_stmt 0 discriminator 1
	mov	r2, #1344
	ldr	r1, .L243
	ldr	r0, .L243+4
	bl	__assert
.L213:
	.loc 5 1348 23 is_stmt 1
	ldr	r0, [sp, #4]
	bl	LPUART_GetStatusFlags
	str	r0, [sp, #16]
	.loc 5 1349 34
	ldr	r0, [sp, #4]
	bl	LPUART_GetEnabledInterrupts
	str	r0, [sp, #12]
	.loc 5 1352 31
	ldr	r3, [sp, #16]
	and	r3, r3, #524288
	.loc 5 1352 8
	cmp	r3, #0
	beq	.L214
	.loc 5 1355 28
	ldr	r3, [sp, #4]
	ldr	r2, [r3, #20]
	.loc 5 1355 35
	ldr	r3, .L243+8
	ands	r3, r3, r2
	.loc 5 1355 50
	orr	r2, r3, #524288
	.loc 5 1355 20
	ldr	r3, [sp, #4]
	str	r2, [r3, #20]
	.loc 5 1358 19
	ldr	r3, [sp]
	ldr	r3, [r3, #36]
	.loc 5 1358 12
	cmp	r3, #0
	beq	.L214
	.loc 5 1360 19
	ldr	r3, [sp]
	ldr	r4, [r3, #36]
	.loc 5 1360 13
	ldr	r3, [sp]
	ldr	r3, [r3, #40]
	movw	r2, #1309
	ldr	r1, [sp]
	ldr	r0, [sp, #4]
	blx	r4
.LVL1:
.L214:
	.loc 5 1365 31
	ldr	r3, [sp, #16]
	and	r3, r3, #1048576
	.loc 5 1365 8
	cmp	r3, #0
	beq	.L215
	.loc 5 1365 77 discriminator 1
	ldr	r3, [sp, #12]
	and	r3, r3, #1048576
	.loc 5 1365 41 discriminator 1
	cmp	r3, #0
	beq	.L215
	.loc 5 1368 33
	ldr	r3, [sp, #4]
	ldr	r3, [r3, #44]
	.loc 5 1368 70
	lsrs	r3, r3, #24
	.loc 5 1368 18
	uxtb	r3, r3
	.loc 5 1368 15
	and	r3, r3, #7
	strb	r3, [sp, #23]
	.loc 5 1370 15
	b	.L216
.L220:
	.loc 5 1372 25
	ldr	r3, [sp]
	ldr	r2, [r3, #16]
	ldrb	r3, [sp, #23]	@ zero_extendqisi2
	.loc 5 1372 23
	cmp	r2, r3
	bcs	.L217
	.loc 5 1372 25 discriminator 1
	ldr	r3, [sp]
	ldr	r3, [r3, #16]
	.loc 5 1372 23 discriminator 1
	uxtb	r3, r3
	b	.L218
.L217:
	.loc 5 1372 23 is_stmt 0 discriminator 2
	ldrb	r3, [sp, #23]	@ zero_extendqisi2
.L218:
	.loc 5 1372 23 discriminator 4
	strb	r3, [sp, #11]
	.loc 5 1375 13 is_stmt 1 discriminator 4
	ldr	r3, [sp]
	ldr	r3, [r3, #12]
	ldrb	r2, [sp, #11]	@ zero_extendqisi2
	mov	r1, r3
	ldr	r0, [sp, #4]
	bl	LPUART_ReadNonBlocking
	.loc 5 1376 28 discriminator 4
	ldr	r3, [sp]
	ldr	r2, [r3, #12]
	ldrb	r3, [sp, #11]	@ zero_extendqisi2
	add	r2, r2, r3
	ldr	r3, [sp]
	str	r2, [r3, #12]
	.loc 5 1377 32 discriminator 4
	ldr	r3, [sp]
	ldr	r2, [r3, #16]
	ldrb	r3, [sp, #11]	@ zero_extendqisi2
	subs	r2, r2, r3
	ldr	r3, [sp]
	str	r2, [r3, #16]
	.loc 5 1378 19 discriminator 4
	ldrb	r2, [sp, #23]
	ldrb	r3, [sp, #11]
	subs	r3, r2, r3
	strb	r3, [sp, #23]
	.loc 5 1381 25 discriminator 4
	ldr	r3, [sp]
	ldr	r3, [r3, #16]
	.loc 5 1381 16 discriminator 4
	cmp	r3, #0
	bne	.L216
	.loc 5 1383 33
	ldr	r3, [sp]
	movs	r2, #2
	strb	r2, [r3, #45]
	.loc 5 1385 17
	mov	r1, #136314880
	ldr	r0, [sp, #4]
	bl	LPUART_DisableInterrupts
	.loc 5 1386 27
	ldr	r3, [sp]
	ldr	r3, [r3, #36]
	.loc 5 1386 20
	cmp	r3, #0
	beq	.L216
	.loc 5 1388 27
	ldr	r3, [sp]
	ldr	r4, [r3, #36]
	.loc 5 1388 21
	ldr	r3, [sp]
	ldr	r3, [r3, #40]
	movw	r2, #1303
	ldr	r1, [sp]
	ldr	r0, [sp, #4]
	blx	r4
.LVL2:
.L216:
	.loc 5 1370 15
	ldrb	r3, [sp, #23]	@ zero_extendqisi2
	cmp	r3, #0
	beq	.L219
	.loc 5 1370 34 discriminator 1
	ldr	r3, [sp]
	ldr	r3, [r3, #16]
	.loc 5 1370 24 discriminator 1
	cmp	r3, #0
	bne	.L220
.L219:
	.loc 5 1394 20
	ldr	r3, [sp, #4]
	ldr	r3, [r3, #20]
	orr	r2, r3, #1048576
	ldr	r3, [sp, #4]
	str	r2, [r3, #20]
	.loc 5 1397 21
	ldr	r3, [sp]
	ldr	r3, [r3, #16]
	.loc 5 1397 12
	cmp	r3, #0
	bne	.L221
	.loc 5 1399 13
	mov	r1, #1048576
	ldr	r0, [sp, #4]
	bl	LPUART_DisableInterrupts
.L221:
	.loc 5 1402 20
	ldr	r3, [sp]
	ldr	r3, [r3, #36]
	.loc 5 1402 12
	cmp	r3, #0
	beq	.L215
	.loc 5 1402 42 discriminator 1
	ldr	r3, [sp]
	ldr	r3, [r3, #16]
	.loc 5 1402 32 discriminator 1
	cmp	r3, #0
	beq	.L215
	.loc 5 1404 19
	ldr	r3, [sp]
	ldr	r4, [r3, #36]
	.loc 5 1404 13
	ldr	r3, [sp]
	ldr	r3, [r3, #40]
	movw	r2, #1314
	ldr	r1, [sp]
	ldr	r0, [sp, #4]
	blx	r4
.LVL3:
.L215:
	.loc 5 1408 36
	ldr	r3, [sp, #16]
	and	r3, r3, #2097152
	.loc 5 1408 8
	cmp	r3, #0
	beq	.L222
	.loc 5 1408 87 discriminator 1
	ldr	r3, [sp, #12]
	and	r3, r3, #2097152
	.loc 5 1408 46 discriminator 1
	cmp	r3, #0
	beq	.L222
	.loc 5 1412 33
	ldr	r3, [sp, #4]
	ldr	r3, [r3, #44]
	.loc 5 1412 70
	lsrs	r3, r3, #24
	.loc 5 1412 18
	uxtb	r3, r3
	.loc 5 1412 15
	and	r3, r3, #7
	strb	r3, [sp, #23]
	.loc 5 1418 15
	b	.L223
.L227:
	.loc 5 1421 25
	ldr	r3, [sp]
	ldr	r2, [r3, #16]
	ldrb	r3, [sp, #23]	@ zero_extendqisi2
	.loc 5 1421 23
	cmp	r2, r3
	bcs	.L224
	.loc 5 1421 25 discriminator 1
	ldr	r3, [sp]
	ldr	r3, [r3, #16]
	.loc 5 1421 23 discriminator 1
	uxtb	r3, r3
	b	.L225
.L224:
	.loc 5 1421 23 is_stmt 0 discriminator 2
	ldrb	r3, [sp, #23]	@ zero_extendqisi2
.L225:
	.loc 5 1421 23 discriminator 4
	strb	r3, [sp, #11]
	.loc 5 1427 13 is_stmt 1 discriminator 4
	ldr	r3, [sp]
	ldr	r3, [r3, #12]
	ldrb	r2, [sp, #11]	@ zero_extendqisi2
	mov	r1, r3
	ldr	r0, [sp, #4]
	bl	LPUART_ReadNonBlocking
	.loc 5 1428 28 discriminator 4
	ldr	r3, [sp]
	ldr	r2, [r3, #12]
	ldrb	r3, [sp, #11]	@ zero_extendqisi2
	add	r2, r2, r3
	ldr	r3, [sp]
	str	r2, [r3, #12]
	.loc 5 1429 32 discriminator 4
	ldr	r3, [sp]
	ldr	r2, [r3, #16]
	ldrb	r3, [sp, #11]	@ zero_extendqisi2
	subs	r2, r2, r3
	ldr	r3, [sp]
	str	r2, [r3, #16]
	.loc 5 1430 19 discriminator 4
	ldrb	r2, [sp, #23]
	ldrb	r3, [sp, #11]
	subs	r3, r2, r3
	strb	r3, [sp, #23]
	.loc 5 1433 24 discriminator 4
	ldr	r3, [sp]
	ldr	r3, [r3, #16]
	.loc 5 1433 16 discriminator 4
	cmp	r3, #0
	bne	.L223
	.loc 5 1435 33
	ldr	r3, [sp]
	movs	r2, #2
	strb	r2, [r3, #45]
	.loc 5 1437 27
	ldr	r3, [sp]
	ldr	r3, [r3, #36]
	.loc 5 1437 20
	cmp	r3, #0
	beq	.L223
	.loc 5 1439 27
	ldr	r3, [sp]
	ldr	r4, [r3, #36]
	.loc 5 1439 21
	ldr	r3, [sp]
	ldr	r3, [r3, #40]
	movw	r2, #1303
	ldr	r1, [sp]
	ldr	r0, [sp, #4]
	blx	r4
.LVL4:
.L223:
	.loc 5 1418 15
	ldrb	r3, [sp, #23]	@ zero_extendqisi2
	cmp	r3, #0
	beq	.L226
	.loc 5 1418 34 discriminator 1
	ldr	r3, [sp]
	ldr	r3, [r3, #16]
	.loc 5 1418 24 discriminator 1
	cmp	r3, #0
	bne	.L227
.L226:
	.loc 5 1445 19
	ldr	r3, [sp]
	ldr	r3, [r3, #24]
	.loc 5 1445 12
	cmp	r3, #0
	beq	.L228
	.loc 5 1447 19
	b	.L229
.L236:
	.loc 5 1450 21
	ldr	r1, [sp]
	ldr	r0, [sp, #4]
	bl	LPUART_TransferIsRxRingBufferFull
	mov	r3, r0
	.loc 5 1450 20
	cmp	r3, #0
	beq	.L230
	.loc 5 1452 31
	ldr	r3, [sp]
	ldr	r3, [r3, #36]
	.loc 5 1452 24
	cmp	r3, #0
	beq	.L230
	.loc 5 1454 31
	ldr	r3, [sp]
	ldr	r4, [r3, #36]
	.loc 5 1454 25
	ldr	r3, [sp]
	ldr	r3, [r3, #40]
	movw	r2, #1308
	ldr	r1, [sp]
	ldr	r0, [sp, #4]
	blx	r4
.LVL5:
.L230:
	.loc 5 1459 21
	ldr	r1, [sp]
	ldr	r0, [sp, #4]
	bl	LPUART_TransferIsRxRingBufferFull
	mov	r3, r0
	.loc 5 1459 20
	cmp	r3, #0
	beq	.L231
	.loc 5 1462 31
	ldr	r3, [sp]
	ldrh	r3, [r3, #34]	@ movhi
	uxth	r3, r3
	.loc 5 1462 50
	adds	r2, r3, #1
	.loc 5 1462 64
	ldr	r3, [sp]
	ldr	r3, [r3, #28]
	.loc 5 1462 24
	cmp	r2, r3
	bne	.L232
	.loc 5 1464 50
	ldr	r3, [sp]
	movs	r2, #0
	strh	r2, [r3, #34]	@ movhi
	b	.L231
.L232:
	.loc 5 1468 31
	ldr	r3, [sp]
	ldrh	r3, [r3, #34]	@ movhi
	uxth	r3, r3
	.loc 5 1468 49
	adds	r3, r3, #1
	uxth	r2, r3
	ldr	r3, [sp]
	strh	r2, [r3, #34]	@ movhi
.L231:
	.loc 5 1474 27
	ldr	r3, [sp]
	ldrb	r3, [r3, #46]	@ zero_extendqisi2
	.loc 5 1474 20
	cmp	r3, #0
	beq	.L233
	.loc 5 1476 75
	ldr	r3, [sp, #4]
	ldr	r3, [r3, #28]
	.loc 5 1476 82
	uxtb	r2, r3
	.loc 5 1476 27
	ldr	r3, [sp]
	ldr	r3, [r3, #24]
	.loc 5 1476 48
	ldr	r1, [sp]
	ldrh	r1, [r1, #32]	@ movhi
	uxth	r1, r1
	.loc 5 1476 41
	add	r3, r3, r1
	.loc 5 1476 82
	and	r2, r2, #127
	uxtb	r2, r2
	.loc 5 1476 68
	strb	r2, [r3]
	b	.L234
.L244:
	.align	2
.L243:
	.word	.LC2
	.word	.LC4
	.word	1071644672
.L233:
	.loc 5 1480 74
	ldr	r3, [sp, #4]
	ldr	r1, [r3, #28]
	.loc 5 1480 27
	ldr	r3, [sp]
	ldr	r3, [r3, #24]
	.loc 5 1480 48
	ldr	r2, [sp]
	ldrh	r2, [r2, #32]	@ movhi
	uxth	r2, r2
	.loc 5 1480 41
	add	r3, r3, r2
	.loc 5 1480 68
	uxtb	r2, r1
	strb	r2, [r3]
.L234:
	.loc 5 1487 27
	ldr	r3, [sp]
	ldrh	r3, [r3, #32]	@ movhi
	uxth	r3, r3
	.loc 5 1487 46
	adds	r2, r3, #1
	.loc 5 1487 60
	ldr	r3, [sp]
	ldr	r3, [r3, #28]
	.loc 5 1487 20
	cmp	r2, r3
	bne	.L235
	.loc 5 1489 46
	ldr	r3, [sp]
	movs	r2, #0
	strh	r2, [r3, #32]	@ movhi
	b	.L229
.L235:
	.loc 5 1493 27
	ldr	r3, [sp]
	ldrh	r3, [r3, #32]	@ movhi
	uxth	r3, r3
	.loc 5 1493 45
	adds	r3, r3, #1
	uxth	r2, r3
	ldr	r3, [sp]
	strh	r2, [r3, #32]	@ movhi
.L229:
	.loc 5 1447 25
	ldrb	r3, [sp, #23]	@ zero_extendqisi2
	subs	r2, r3, #1
	strb	r2, [sp, #23]
	.loc 5 1447 19
	cmp	r3, #0
	bne	.L236
	b	.L222
.L228:
	.loc 5 1498 25
	ldr	r3, [sp]
	ldr	r3, [r3, #16]
	.loc 5 1498 17
	cmp	r3, #0
	bne	.L222
	.loc 5 1500 13
	mov	r1, #136314880
	ldr	r0, [sp, #4]
	bl	LPUART_DisableInterrupts
.L222:
	.loc 5 1508 37
	ldr	r3, [sp, #16]
	and	r3, r3, #8388608
	.loc 5 1508 8
	cmp	r3, #0
	beq	.L242
	.loc 5 1508 89 discriminator 1
	ldr	r3, [sp, #12]
	and	r3, r3, #8388608
	.loc 5 1508 47 discriminator 1
	cmp	r3, #0
	beq	.L242
	.loc 5 1513 23
	ldr	r3, [sp, #4]
	ldr	r3, [r3, #44]
	.loc 5 1513 60
	lsrs	r3, r3, #8
	uxtb	r3, r3
	and	r3, r3, #7
	uxtb	r3, r3
	.loc 5 1512 15
	rsb	r3, r3, #4
	strb	r3, [sp, #23]
	.loc 5 1518 15
	b	.L238
.L241:
	.loc 5 1521 25
	ldr	r3, [sp]
	ldr	r2, [r3, #4]
	ldrb	r3, [sp, #23]	@ zero_extendqisi2
	.loc 5 1521 23
	cmp	r2, r3
	bcs	.L239
	.loc 5 1521 25 discriminator 1
	ldr	r3, [sp]
	ldr	r3, [r3, #4]
	.loc 5 1521 23 discriminator 1
	uxtb	r3, r3
	b	.L240
.L239:
	.loc 5 1521 23 is_stmt 0 discriminator 2
	ldrb	r3, [sp, #23]	@ zero_extendqisi2
.L240:
	.loc 5 1521 23 discriminator 4
	strb	r3, [sp, #11]
	.loc 5 1527 49 is_stmt 1 discriminator 4
	ldr	r3, [sp]
	ldr	r3, [r3]
	.loc 5 1527 13 discriminator 4
	ldrb	r2, [sp, #11]	@ zero_extendqisi2
	mov	r1, r3
	ldr	r0, [sp, #4]
	bl	LPUART_WriteNonBlocking
	.loc 5 1528 28 discriminator 4
	ldr	r3, [sp]
	ldr	r2, [r3]
	ldrb	r3, [sp, #11]	@ zero_extendqisi2
	add	r2, r2, r3
	ldr	r3, [sp]
	str	r2, [r3]
	.loc 5 1529 32 discriminator 4
	ldr	r3, [sp]
	ldr	r2, [r3, #4]
	ldrb	r3, [sp, #11]	@ zero_extendqisi2
	subs	r2, r2, r3
	ldr	r3, [sp]
	str	r2, [r3, #4]
	.loc 5 1530 19 discriminator 4
	ldrb	r2, [sp, #23]
	ldrb	r3, [sp, #11]
	subs	r3, r2, r3
	strb	r3, [sp, #23]
	.loc 5 1533 24 discriminator 4
	ldr	r3, [sp]
	ldr	r3, [r3, #4]
	.loc 5 1533 16 discriminator 4
	cmp	r3, #0
	bne	.L238
	.loc 5 1535 33
	ldr	r3, [sp]
	movs	r2, #0
	strb	r2, [r3, #44]
	.loc 5 1538 35
	ldr	r3, [sp, #4]
	ldr	r3, [r3, #24]
	.loc 5 1538 42
	bic	r2, r3, #8388608
	.loc 5 1538 28
	ldr	r3, [sp, #4]
	str	r2, [r3, #24]
	.loc 5 1541 27
	ldr	r3, [sp]
	ldr	r3, [r3, #36]
	.loc 5 1541 20
	cmp	r3, #0
	beq	.L238
	.loc 5 1543 27
	ldr	r3, [sp]
	ldr	r4, [r3, #36]
	.loc 5 1543 21
	ldr	r3, [sp]
	ldr	r3, [r3, #40]
	movw	r2, #1302
	ldr	r1, [sp]
	ldr	r0, [sp, #4]
	blx	r4
.LVL6:
.L238:
	.loc 5 1518 15
	ldrb	r3, [sp, #23]	@ zero_extendqisi2
	cmp	r3, #0
	beq	.L242
	.loc 5 1518 34 discriminator 1
	ldr	r3, [sp]
	ldr	r3, [r3, #4]
	.loc 5 1518 24 discriminator 1
	cmp	r3, #0
	bne	.L241
.L242:
	.loc 5 1548 1
	nop
	add	sp, sp, #24
.LCFI89:
	@ sp needed
	pop	{r4, pc}
.LFE196:
	.size	LPUART_TransferHandleIRQ, .-LPUART_TransferHandleIRQ
	.section	.text.LPUART_TransferHandleErrorIRQ,"ax",%progbits
	.align	1
	.global	LPUART_TransferHandleErrorIRQ
	.syntax unified
	.thumb
	.thumb_func
	.fpu fpv5-d16
	.type	LPUART_TransferHandleErrorIRQ, %function
LPUART_TransferHandleErrorIRQ:
.LFB197:
	.loc 5 1559 1
	@ args = 0, pretend = 0, frame = 8
	@ frame_needed = 0, uses_anonymous_args = 0
	@ link register save eliminated.
	sub	sp, sp, #8
.LCFI90:
	str	r0, [sp, #4]
	str	r1, [sp]
	.loc 5 1561 1
	nop
	add	sp, sp, #8
.LCFI91:
	@ sp needed
	bx	lr
.LFE197:
	.size	LPUART_TransferHandleErrorIRQ, .-LPUART_TransferHandleErrorIRQ
	.section	.text.LPUART1_DriverIRQHandler,"ax",%progbits
	.align	1
	.global	LPUART1_DriverIRQHandler
	.syntax unified
	.thumb
	.thumb_func
	.fpu fpv5-d16
	.type	LPUART1_DriverIRQHandler, %function
LPUART1_DriverIRQHandler:
.LFB198:
	.loc 5 1700 1
	@ args = 0, pretend = 0, frame = 0
	@ frame_needed = 0, uses_anonymous_args = 0
	push	{r3, lr}
.LCFI92:
	.loc 5 1701 5
	ldr	r3, .L247
	ldr	r3, [r3]
	ldr	r2, .L247+4
	ldr	r2, [r2, #4]
	mov	r1, r2
	ldr	r0, .L247+8
	blx	r3
.LVL7:
	.loc 5 1707 1
	nop
	pop	{r3, pc}
.L248:
	.align	2
.L247:
	.word	s_lpuartIsr
	.word	s_lpuartHandle
	.word	1075331072
.LFE198:
	.size	LPUART1_DriverIRQHandler, .-LPUART1_DriverIRQHandler
	.section	.text.LPUART2_DriverIRQHandler,"ax",%progbits
	.align	1
	.global	LPUART2_DriverIRQHandler
	.syntax unified
	.thumb
	.thumb_func
	.fpu fpv5-d16
	.type	LPUART2_DriverIRQHandler, %function
LPUART2_DriverIRQHandler:
.LFB199:
	.loc 5 1734 1
	@ args = 0, pretend = 0, frame = 0
	@ frame_needed = 0, uses_anonymous_args = 0
	push	{r3, lr}
.LCFI93:
	.loc 5 1735 5
	ldr	r3, .L250
	ldr	r3, [r3]
	ldr	r2, .L250+4
	ldr	r2, [r2, #8]
	mov	r1, r2
	ldr	r0, .L250+8
	blx	r3
.LVL8:
	.loc 5 1741 1
	nop
	pop	{r3, pc}
.L251:
	.align	2
.L250:
	.word	s_lpuartIsr
	.word	s_lpuartHandle
	.word	1075347456
.LFE199:
	.size	LPUART2_DriverIRQHandler, .-LPUART2_DriverIRQHandler
	.section	.text.LPUART3_DriverIRQHandler,"ax",%progbits
	.align	1
	.global	LPUART3_DriverIRQHandler
	.syntax unified
	.thumb
	.thumb_func
	.fpu fpv5-d16
	.type	LPUART3_DriverIRQHandler, %function
LPUART3_DriverIRQHandler:
.LFB200:
	.loc 5 1767 1
	@ args = 0, pretend = 0, frame = 0
	@ frame_needed = 0, uses_anonymous_args = 0
	push	{r3, lr}
.LCFI94:
	.loc 5 1768 5
	ldr	r3, .L253
	ldr	r3, [r3]
	ldr	r2, .L253+4
	ldr	r2, [r2, #12]
	mov	r1, r2
	ldr	r0, .L253+8
	blx	r3
.LVL9:
	.loc 5 1774 1
	nop
	pop	{r3, pc}
.L254:
	.align	2
.L253:
	.word	s_lpuartIsr
	.word	s_lpuartHandle
	.word	1075363840
.LFE200:
	.size	LPUART3_DriverIRQHandler, .-LPUART3_DriverIRQHandler
	.section	.text.LPUART4_DriverIRQHandler,"ax",%progbits
	.align	1
	.global	LPUART4_DriverIRQHandler
	.syntax unified
	.thumb
	.thumb_func
	.fpu fpv5-d16
	.type	LPUART4_DriverIRQHandler, %function
LPUART4_DriverIRQHandler:
.LFB201:
	.loc 5 1800 1
	@ args = 0, pretend = 0, frame = 0
	@ frame_needed = 0, uses_anonymous_args = 0
	push	{r3, lr}
.LCFI95:
	.loc 5 1801 5
	ldr	r3, .L256
	ldr	r3, [r3]
	ldr	r2, .L256+4
	ldr	r2, [r2, #16]
	mov	r1, r2
	ldr	r0, .L256+8
	blx	r3
.LVL10:
	.loc 5 1807 1
	nop
	pop	{r3, pc}
.L257:
	.align	2
.L256:
	.word	s_lpuartIsr
	.word	s_lpuartHandle
	.word	1075380224
.LFE201:
	.size	LPUART4_DriverIRQHandler, .-LPUART4_DriverIRQHandler
	.section	.text.LPUART5_DriverIRQHandler,"ax",%progbits
	.align	1
	.global	LPUART5_DriverIRQHandler
	.syntax unified
	.thumb
	.thumb_func
	.fpu fpv5-d16
	.type	LPUART5_DriverIRQHandler, %function
LPUART5_DriverIRQHandler:
.LFB202:
	.loc 5 1833 1
	@ args = 0, pretend = 0, frame = 0
	@ frame_needed = 0, uses_anonymous_args = 0
	push	{r3, lr}
.LCFI96:
	.loc 5 1834 5
	ldr	r3, .L259
	ldr	r3, [r3]
	ldr	r2, .L259+4
	ldr	r2, [r2, #20]
	mov	r1, r2
	ldr	r0, .L259+8
	blx	r3
.LVL11:
	.loc 5 1840 1
	nop
	pop	{r3, pc}
.L260:
	.align	2
.L259:
	.word	s_lpuartIsr
	.word	s_lpuartHandle
	.word	1075396608
.LFE202:
	.size	LPUART5_DriverIRQHandler, .-LPUART5_DriverIRQHandler
	.section	.text.LPUART6_DriverIRQHandler,"ax",%progbits
	.align	1
	.global	LPUART6_DriverIRQHandler
	.syntax unified
	.thumb
	.thumb_func
	.fpu fpv5-d16
	.type	LPUART6_DriverIRQHandler, %function
LPUART6_DriverIRQHandler:
.LFB203:
	.loc 5 1866 1
	@ args = 0, pretend = 0, frame = 0
	@ frame_needed = 0, uses_anonymous_args = 0
	push	{r3, lr}
.LCFI97:
	.loc 5 1867 5
	ldr	r3, .L262
	ldr	r3, [r3]
	ldr	r2, .L262+4
	ldr	r2, [r2, #24]
	mov	r1, r2
	ldr	r0, .L262+8
	blx	r3
.LVL12:
	.loc 5 1873 1
	nop
	pop	{r3, pc}
.L263:
	.align	2
.L262:
	.word	s_lpuartIsr
	.word	s_lpuartHandle
	.word	1075412992
.LFE203:
	.size	LPUART6_DriverIRQHandler, .-LPUART6_DriverIRQHandler
	.section	.text.LPUART7_DriverIRQHandler,"ax",%progbits
	.align	1
	.global	LPUART7_DriverIRQHandler
	.syntax unified
	.thumb
	.thumb_func
	.fpu fpv5-d16
	.type	LPUART7_DriverIRQHandler, %function
LPUART7_DriverIRQHandler:
.LFB204:
	.loc 5 1899 1
	@ args = 0, pretend = 0, frame = 0
	@ frame_needed = 0, uses_anonymous_args = 0
	push	{r3, lr}
.LCFI98:
	.loc 5 1900 5
	ldr	r3, .L265
	ldr	r3, [r3]
	ldr	r2, .L265+4
	ldr	r2, [r2, #28]
	mov	r1, r2
	ldr	r0, .L265+8
	blx	r3
.LVL13:
	.loc 5 1906 1
	nop
	pop	{r3, pc}
.L266:
	.align	2
.L265:
	.word	s_lpuartIsr
	.word	s_lpuartHandle
	.word	1075429376
.LFE204:
	.size	LPUART7_DriverIRQHandler, .-LPUART7_DriverIRQHandler
	.section	.text.LPUART8_DriverIRQHandler,"ax",%progbits
	.align	1
	.global	LPUART8_DriverIRQHandler
	.syntax unified
	.thumb
	.thumb_func
	.fpu fpv5-d16
	.type	LPUART8_DriverIRQHandler, %function
LPUART8_DriverIRQHandler:
.LFB205:
	.loc 5 1932 1
	@ args = 0, pretend = 0, frame = 0
	@ frame_needed = 0, uses_anonymous_args = 0
	push	{r3, lr}
.LCFI99:
	.loc 5 1933 5
	ldr	r3, .L268
	ldr	r3, [r3]
	ldr	r2, .L268+4
	ldr	r2, [r2, #32]
	mov	r1, r2
	ldr	r0, .L268+8
	blx	r3
.LVL14:
	.loc 5 1939 1
	nop
	pop	{r3, pc}
.L269:
	.align	2
.L268:
	.word	s_lpuartIsr
	.word	s_lpuartHandle
	.word	1075445760
.LFE205:
	.size	LPUART8_DriverIRQHandler, .-LPUART8_DriverIRQHandler
	.section	.debug_frame,"",%progbits
.Lframe0:
	.4byte	.LECIE0-.LSCIE0
.LSCIE0:
	.4byte	0xffffffff
	.byte	0x3
	.ascii	"\000"
	.uleb128 0x1
	.sleb128 -4
	.uleb128 0xe
	.byte	0xc
	.uleb128 0xd
	.uleb128 0
	.align	2
.LECIE0:
.LSFDE0:
	.4byte	.LEFDE0-.LASFDE0
.LASFDE0:
	.4byte	.Lframe0
	.4byte	.LFB104
	.4byte	.LFE104-.LFB104
	.byte	0x4
	.4byte	.LCFI0-.LFB104
	.byte	0xe
	.uleb128 0x8
	.byte	0x4
	.4byte	.LCFI1-.LCFI0
	.byte	0xe
	.uleb128 0
	.align	2
.LEFDE0:
.LSFDE2:
	.4byte	.LEFDE2-.LASFDE2
.LASFDE2:
	.4byte	.Lframe0
	.4byte	.LFB145
	.4byte	.LFE145-.LFB145
	.byte	0x4
	.4byte	.LCFI2-.LFB145
	.byte	0xe
	.uleb128 0x4
	.byte	0x8e
	.uleb128 0x1
	.byte	0x4
	.4byte	.LCFI3-.LCFI2
	.byte	0xe
	.uleb128 0x20
	.byte	0x4
	.4byte	.LCFI4-.LCFI3
	.byte	0xe
	.uleb128 0x4
	.align	2
.LEFDE2:
.LSFDE4:
	.4byte	.LEFDE4-.LASFDE4
.LASFDE4:
	.4byte	.Lframe0
	.4byte	.LFB146
	.4byte	.LFE146-.LFB146
	.byte	0x4
	.4byte	.LCFI5-.LFB146
	.byte	0xe
	.uleb128 0x4
	.byte	0x8e
	.uleb128 0x1
	.byte	0x4
	.4byte	.LCFI6-.LCFI5
	.byte	0xe
	.uleb128 0x10
	.byte	0x4
	.4byte	.LCFI7-.LCFI6
	.byte	0xe
	.uleb128 0x4
	.align	2
.LEFDE4:
.LSFDE6:
	.4byte	.LEFDE6-.LASFDE6
.LASFDE6:
	.4byte	.Lframe0
	.4byte	.LFB147
	.4byte	.LFE147-.LFB147
	.byte	0x4
	.4byte	.LCFI8-.LFB147
	.byte	0xe
	.uleb128 0x4
	.byte	0x8e
	.uleb128 0x1
	.byte	0x4
	.4byte	.LCFI9-.LCFI8
	.byte	0xe
	.uleb128 0x10
	.byte	0x4
	.4byte	.LCFI10-.LCFI9
	.byte	0xe
	.uleb128 0x4
	.align	2
.LEFDE6:
.LSFDE8:
	.4byte	.LEFDE8-.LASFDE8
.LASFDE8:
	.4byte	.Lframe0
	.4byte	.LFB159
	.4byte	.LFE159-.LFB159
	.byte	0x4
	.4byte	.LCFI11-.LFB159
	.byte	0xe
	.uleb128 0x4
	.byte	0x8e
	.uleb128 0x1
	.byte	0x4
	.4byte	.LCFI12-.LCFI11
	.byte	0xe
	.uleb128 0x10
	.byte	0x4
	.4byte	.LCFI13-.LCFI12
	.byte	0xe
	.uleb128 0x4
	.align	2
.LEFDE8:
.LSFDE10:
	.4byte	.LEFDE10-.LASFDE10
.LASFDE10:
	.4byte	.Lframe0
	.4byte	.LFB163
	.4byte	.LFE163-.LFB163
	.byte	0x4
	.4byte	.LCFI14-.LFB163
	.byte	0xe
	.uleb128 0x8
	.byte	0x4
	.4byte	.LCFI15-.LCFI14
	.byte	0xe
	.uleb128 0
	.align	2
.LEFDE10:
.LSFDE12:
	.4byte	.LEFDE12-.LASFDE12
.LASFDE12:
	.4byte	.Lframe0
	.4byte	.LFB171
	.4byte	.LFE171-.LFB171
	.byte	0x4
	.4byte	.LCFI16-.LFB171
	.byte	0xe
	.uleb128 0x4
	.byte	0x8e
	.uleb128 0x1
	.byte	0x4
	.4byte	.LCFI17-.LCFI16
	.byte	0xe
	.uleb128 0x18
	.byte	0x4
	.4byte	.LCFI18-.LCFI17
	.byte	0xe
	.uleb128 0x4
	.align	2
.LEFDE12:
.LSFDE14:
	.4byte	.LEFDE14-.LASFDE14
.LASFDE14:
	.4byte	.Lframe0
	.4byte	.LFB172
	.4byte	.LFE172-.LFB172
	.byte	0x4
	.4byte	.LCFI19-.LFB172
	.byte	0xe
	.uleb128 0x4
	.byte	0x8e
	.uleb128 0x1
	.byte	0x4
	.4byte	.LCFI20-.LCFI19
	.byte	0xe
	.uleb128 0x18
	.byte	0x4
	.4byte	.LCFI21-.LCFI20
	.byte	0xe
	.uleb128 0x4
	.align	2
.LEFDE14:
.LSFDE16:
	.4byte	.LEFDE16-.LASFDE16
.LASFDE16:
	.4byte	.Lframe0
	.4byte	.LFB173
	.4byte	.LFE173-.LFB173
	.byte	0x4
	.4byte	.LCFI22-.LFB173
	.byte	0xe
	.uleb128 0x4
	.byte	0x8e
	.uleb128 0x1
	.byte	0x4
	.4byte	.LCFI23-.LCFI22
	.byte	0xe
	.uleb128 0x18
	.byte	0x4
	.4byte	.LCFI24-.LCFI23
	.byte	0xe
	.uleb128 0x4
	.align	2
.LEFDE16:
.LSFDE18:
	.4byte	.LEFDE18-.LASFDE18
.LASFDE18:
	.4byte	.Lframe0
	.4byte	.LFB174
	.4byte	.LFE174-.LFB174
	.byte	0x4
	.4byte	.LCFI25-.LFB174
	.byte	0xe
	.uleb128 0x4
	.byte	0x8e
	.uleb128 0x1
	.byte	0x4
	.4byte	.LCFI26-.LCFI25
	.byte	0xe
	.uleb128 0x20
	.byte	0x4
	.4byte	.LCFI27-.LCFI26
	.byte	0xe
	.uleb128 0x4
	.align	2
.LEFDE18:
.LSFDE20:
	.4byte	.LEFDE20-.LASFDE20
.LASFDE20:
	.4byte	.Lframe0
	.4byte	.LFB175
	.4byte	.LFE175-.LFB175
	.byte	0x4
	.4byte	.LCFI28-.LFB175
	.byte	0xe
	.uleb128 0x4
	.byte	0x8e
	.uleb128 0x1
	.byte	0x4
	.4byte	.LCFI29-.LCFI28
	.byte	0xe
	.uleb128 0x28
	.byte	0x4
	.4byte	.LCFI30-.LCFI29
	.byte	0xe
	.uleb128 0x4
	.align	2
.LEFDE20:
.LSFDE22:
	.4byte	.LEFDE22-.LASFDE22
.LASFDE22:
	.4byte	.Lframe0
	.4byte	.LFB176
	.4byte	.LFE176-.LFB176
	.byte	0x4
	.4byte	.LCFI31-.LFB176
	.byte	0xe
	.uleb128 0x4
	.byte	0x8e
	.uleb128 0x1
	.byte	0x4
	.4byte	.LCFI32-.LCFI31
	.byte	0xe
	.uleb128 0x38
	.byte	0x4
	.4byte	.LCFI33-.LCFI32
	.byte	0xe
	.uleb128 0x4
	.align	2
.LEFDE22:
.LSFDE24:
	.4byte	.LEFDE24-.LASFDE24
.LASFDE24:
	.4byte	.Lframe0
	.4byte	.LFB177
	.4byte	.LFE177-.LFB177
	.byte	0x4
	.4byte	.LCFI34-.LFB177
	.byte	0xe
	.uleb128 0x4
	.byte	0x8e
	.uleb128 0x1
	.byte	0x4
	.4byte	.LCFI35-.LCFI34
	.byte	0xe
	.uleb128 0x18
	.byte	0x4
	.4byte	.LCFI36-.LCFI35
	.byte	0xe
	.uleb128 0x4
	.align	2
.LEFDE24:
.LSFDE26:
	.4byte	.LEFDE26-.LASFDE26
.LASFDE26:
	.4byte	.Lframe0
	.4byte	.LFB178
	.4byte	.LFE178-.LFB178
	.byte	0x4
	.4byte	.LCFI37-.LFB178
	.byte	0xe
	.uleb128 0x4
	.byte	0x8e
	.uleb128 0x1
	.byte	0x4
	.4byte	.LCFI38-.LCFI37
	.byte	0xe
	.uleb128 0x10
	.byte	0x4
	.4byte	.LCFI39-.LCFI38
	.byte	0xe
	.uleb128 0x4
	.align	2
.LEFDE26:
.LSFDE28:
	.4byte	.LEFDE28-.LASFDE28
.LASFDE28:
	.4byte	.Lframe0
	.4byte	.LFB179
	.4byte	.LFE179-.LFB179
	.byte	0x4
	.4byte	.LCFI40-.LFB179
	.byte	0xe
	.uleb128 0x4
	.byte	0x8e
	.uleb128 0x1
	.byte	0x4
	.4byte	.LCFI41-.LCFI40
	.byte	0xe
	.uleb128 0x38
	.byte	0x4
	.4byte	.LCFI42-.LCFI41
	.byte	0xe
	.uleb128 0x4
	.align	2
.LEFDE28:
.LSFDE30:
	.4byte	.LEFDE30-.LASFDE30
.LASFDE30:
	.4byte	.Lframe0
	.4byte	.LFB180
	.4byte	.LFE180-.LFB180
	.byte	0x4
	.4byte	.LCFI43-.LFB180
	.byte	0xe
	.uleb128 0x8
	.byte	0x4
	.4byte	.LCFI44-.LCFI43
	.byte	0xe
	.uleb128 0
	.align	2
.LEFDE30:
.LSFDE32:
	.4byte	.LEFDE32-.LASFDE32
.LASFDE32:
	.4byte	.Lframe0
	.4byte	.LFB181
	.4byte	.LFE181-.LFB181
	.byte	0x4
	.4byte	.LCFI45-.LFB181
	.byte	0xe
	.uleb128 0x8
	.byte	0x4
	.4byte	.LCFI46-.LCFI45
	.byte	0xe
	.uleb128 0
	.align	2
.LEFDE32:
.LSFDE34:
	.4byte	.LEFDE34-.LASFDE34
.LASFDE34:
	.4byte	.Lframe0
	.4byte	.LFB182
	.4byte	.LFE182-.LFB182
	.byte	0x4
	.4byte	.LCFI47-.LFB182
	.byte	0xe
	.uleb128 0x10
	.byte	0x4
	.4byte	.LCFI48-.LCFI47
	.byte	0xe
	.uleb128 0
	.align	2
.LEFDE34:
.LSFDE36:
	.4byte	.LEFDE36-.LASFDE36
.LASFDE36:
	.4byte	.Lframe0
	.4byte	.LFB183
	.4byte	.LFE183-.LFB183
	.byte	0x4
	.4byte	.LCFI49-.LFB183
	.byte	0xe
	.uleb128 0x10
	.byte	0x4
	.4byte	.LCFI50-.LCFI49
	.byte	0xe
	.uleb128 0
	.align	2
.LEFDE36:
.LSFDE38:
	.4byte	.LEFDE38-.LASFDE38
.LASFDE38:
	.4byte	.Lframe0
	.4byte	.LFB184
	.4byte	.LFE184-.LFB184
	.byte	0x4
	.4byte	.LCFI51-.LFB184
	.byte	0xe
	.uleb128 0x4
	.byte	0x8e
	.uleb128 0x1
	.byte	0x4
	.4byte	.LCFI52-.LCFI51
	.byte	0xe
	.uleb128 0x18
	.byte	0x4
	.4byte	.LCFI53-.LCFI52
	.byte	0xe
	.uleb128 0x4
	.align	2
.LEFDE38:
.LSFDE40:
	.4byte	.LEFDE40-.LASFDE40
.LASFDE40:
	.4byte	.Lframe0
	.4byte	.LFB185
	.4byte	.LFE185-.LFB185
	.byte	0x4
	.4byte	.LCFI54-.LFB185
	.byte	0xe
	.uleb128 0x4
	.byte	0x8e
	.uleb128 0x1
	.byte	0x4
	.4byte	.LCFI55-.LCFI54
	.byte	0xe
	.uleb128 0x18
	.byte	0x4
	.4byte	.LCFI56-.LCFI55
	.byte	0xe
	.uleb128 0x4
	.align	2
.LEFDE40:
.LSFDE42:
	.4byte	.LEFDE42-.LASFDE42
.LASFDE42:
	.4byte	.Lframe0
	.4byte	.LFB186
	.4byte	.LFE186-.LFB186
	.byte	0x4
	.4byte	.LCFI57-.LFB186
	.byte	0xe
	.uleb128 0x4
	.byte	0x8e
	.uleb128 0x1
	.byte	0x4
	.4byte	.LCFI58-.LCFI57
	.byte	0xe
	.uleb128 0x28
	.byte	0x4
	.4byte	.LCFI59-.LCFI58
	.byte	0xe
	.uleb128 0x4
	.align	2
.LEFDE42:
.LSFDE44:
	.4byte	.LEFDE44-.LASFDE44
.LASFDE44:
	.4byte	.Lframe0
	.4byte	.LFB187
	.4byte	.LFE187-.LFB187
	.byte	0x4
	.4byte	.LCFI60-.LFB187
	.byte	0xe
	.uleb128 0x4
	.byte	0x8e
	.uleb128 0x1
	.byte	0x4
	.4byte	.LCFI61-.LCFI60
	.byte	0xe
	.uleb128 0x28
	.byte	0x4
	.4byte	.LCFI62-.LCFI61
	.byte	0xe
	.uleb128 0x4
	.align	2
.LEFDE44:
.LSFDE46:
	.4byte	.LEFDE46-.LASFDE46
.LASFDE46:
	.4byte	.Lframe0
	.4byte	.LFB188
	.4byte	.LFE188-.LFB188
	.byte	0x4
	.4byte	.LCFI63-.LFB188
	.byte	0xe
	.uleb128 0x4
	.byte	0x8e
	.uleb128 0x1
	.byte	0x4
	.4byte	.LCFI64-.LCFI63
	.byte	0xe
	.uleb128 0x18
	.byte	0x4
	.4byte	.LCFI65-.LCFI64
	.byte	0xe
	.uleb128 0x4
	.align	2
.LEFDE46:
.LSFDE48:
	.4byte	.LEFDE48-.LASFDE48
.LASFDE48:
	.4byte	.Lframe0
	.4byte	.LFB189
	.4byte	.LFE189-.LFB189
	.byte	0x4
	.4byte	.LCFI66-.LFB189
	.byte	0xe
	.uleb128 0x4
	.byte	0x8e
	.uleb128 0x1
	.byte	0x4
	.4byte	.LCFI67-.LCFI66
	.byte	0xe
	.uleb128 0x10
	.byte	0x4
	.4byte	.LCFI68-.LCFI67
	.byte	0xe
	.uleb128 0x4
	.align	2
.LEFDE48:
.LSFDE50:
	.4byte	.LEFDE50-.LASFDE50
.LASFDE50:
	.4byte	.Lframe0
	.4byte	.LFB190
	.4byte	.LFE190-.LFB190
	.byte	0x4
	.4byte	.LCFI69-.LFB190
	.byte	0xe
	.uleb128 0x4
	.byte	0x8e
	.uleb128 0x1
	.byte	0x4
	.4byte	.LCFI70-.LCFI69
	.byte	0xe
	.uleb128 0x20
	.byte	0x4
	.4byte	.LCFI71-.LCFI70
	.byte	0xe
	.uleb128 0x4
	.align	2
.LEFDE50:
.LSFDE52:
	.4byte	.LEFDE52-.LASFDE52
.LASFDE52:
	.4byte	.Lframe0
	.4byte	.LFB191
	.4byte	.LFE191-.LFB191
	.byte	0x4
	.4byte	.LCFI72-.LFB191
	.byte	0xe
	.uleb128 0x4
	.byte	0x8e
	.uleb128 0x1
	.byte	0x4
	.4byte	.LCFI73-.LCFI72
	.byte	0xe
	.uleb128 0x10
	.byte	0x4
	.4byte	.LCFI74-.LCFI73
	.byte	0xe
	.uleb128 0x4
	.align	2
.LEFDE52:
.LSFDE54:
	.4byte	.LEFDE54-.LASFDE54
.LASFDE54:
	.4byte	.Lframe0
	.4byte	.LFB192
	.4byte	.LFE192-.LFB192
	.byte	0x4
	.4byte	.LCFI75-.LFB192
	.byte	0xe
	.uleb128 0x4
	.byte	0x8e
	.uleb128 0x1
	.byte	0x4
	.4byte	.LCFI76-.LCFI75
	.byte	0xe
	.uleb128 0x18
	.byte	0x4
	.4byte	.LCFI77-.LCFI76
	.byte	0xe
	.uleb128 0x4
	.align	2
.LEFDE54:
.LSFDE56:
	.4byte	.LEFDE56-.LASFDE56
.LASFDE56:
	.4byte	.Lframe0
	.4byte	.LFB193
	.4byte	.LFE193-.LFB193
	.byte	0x4
	.4byte	.LCFI78-.LFB193
	.byte	0xe
	.uleb128 0x8
	.byte	0x84
	.uleb128 0x2
	.byte	0x8e
	.uleb128 0x1
	.byte	0x4
	.4byte	.LCFI79-.LCFI78
	.byte	0xe
	.uleb128 0x30
	.byte	0x4
	.4byte	.LCFI80-.LCFI79
	.byte	0xe
	.uleb128 0x8
	.align	2
.LEFDE56:
.LSFDE58:
	.4byte	.LEFDE58-.LASFDE58
.LASFDE58:
	.4byte	.Lframe0
	.4byte	.LFB194
	.4byte	.LFE194-.LFB194
	.byte	0x4
	.4byte	.LCFI81-.LFB194
	.byte	0xe
	.uleb128 0x4
	.byte	0x8e
	.uleb128 0x1
	.byte	0x4
	.4byte	.LCFI82-.LCFI81
	.byte	0xe
	.uleb128 0x10
	.byte	0x4
	.4byte	.LCFI83-.LCFI82
	.byte	0xe
	.uleb128 0x4
	.align	2
.LEFDE58:
.LSFDE60:
	.4byte	.LEFDE60-.LASFDE60
.LASFDE60:
	.4byte	.Lframe0
	.4byte	.LFB195
	.4byte	.LFE195-.LFB195
	.byte	0x4
	.4byte	.LCFI84-.LFB195
	.byte	0xe
	.uleb128 0x4
	.byte	0x8e
	.uleb128 0x1
	.byte	0x4
	.4byte	.LCFI85-.LCFI84
	.byte	0xe
	.uleb128 0x18
	.byte	0x4
	.4byte	.LCFI86-.LCFI85
	.byte	0xe
	.uleb128 0x4
	.align	2
.LEFDE60:
.LSFDE62:
	.4byte	.LEFDE62-.LASFDE62
.LASFDE62:
	.4byte	.Lframe0
	.4byte	.LFB196
	.4byte	.LFE196-.LFB196
	.byte	0x4
	.4byte	.LCFI87-.LFB196
	.byte	0xe
	.uleb128 0x8
	.byte	0x84
	.uleb128 0x2
	.byte	0x8e
	.uleb128 0x1
	.byte	0x4
	.4byte	.LCFI88-.LCFI87
	.byte	0xe
	.uleb128 0x20
	.byte	0x4
	.4byte	.LCFI89-.LCFI88
	.byte	0xe
	.uleb128 0x8
	.align	2
.LEFDE62:
.LSFDE64:
	.4byte	.LEFDE64-.LASFDE64
.LASFDE64:
	.4byte	.Lframe0
	.4byte	.LFB197
	.4byte	.LFE197-.LFB197
	.byte	0x4
	.4byte	.LCFI90-.LFB197
	.byte	0xe
	.uleb128 0x8
	.byte	0x4
	.4byte	.LCFI91-.LCFI90
	.byte	0xe
	.uleb128 0
	.align	2
.LEFDE64:
.LSFDE66:
	.4byte	.LEFDE66-.LASFDE66
.LASFDE66:
	.4byte	.Lframe0
	.4byte	.LFB198
	.4byte	.LFE198-.LFB198
	.byte	0x4
	.4byte	.LCFI92-.LFB198
	.byte	0xe
	.uleb128 0x8
	.byte	0x83
	.uleb128 0x2
	.byte	0x8e
	.uleb128 0x1
	.align	2
.LEFDE66:
.LSFDE68:
	.4byte	.LEFDE68-.LASFDE68
.LASFDE68:
	.4byte	.Lframe0
	.4byte	.LFB199
	.4byte	.LFE199-.LFB199
	.byte	0x4
	.4byte	.LCFI93-.LFB199
	.byte	0xe
	.uleb128 0x8
	.byte	0x83
	.uleb128 0x2
	.byte	0x8e
	.uleb128 0x1
	.align	2
.LEFDE68:
.LSFDE70:
	.4byte	.LEFDE70-.LASFDE70
.LASFDE70:
	.4byte	.Lframe0
	.4byte	.LFB200
	.4byte	.LFE200-.LFB200
	.byte	0x4
	.4byte	.LCFI94-.LFB200
	.byte	0xe
	.uleb128 0x8
	.byte	0x83
	.uleb128 0x2
	.byte	0x8e
	.uleb128 0x1
	.align	2
.LEFDE70:
.LSFDE72:
	.4byte	.LEFDE72-.LASFDE72
.LASFDE72:
	.4byte	.Lframe0
	.4byte	.LFB201
	.4byte	.LFE201-.LFB201
	.byte	0x4
	.4byte	.LCFI95-.LFB201
	.byte	0xe
	.uleb128 0x8
	.byte	0x83
	.uleb128 0x2
	.byte	0x8e
	.uleb128 0x1
	.align	2
.LEFDE72:
.LSFDE74:
	.4byte	.LEFDE74-.LASFDE74
.LASFDE74:
	.4byte	.Lframe0
	.4byte	.LFB202
	.4byte	.LFE202-.LFB202
	.byte	0x4
	.4byte	.LCFI96-.LFB202
	.byte	0xe
	.uleb128 0x8
	.byte	0x83
	.uleb128 0x2
	.byte	0x8e
	.uleb128 0x1
	.align	2
.LEFDE74:
.LSFDE76:
	.4byte	.LEFDE76-.LASFDE76
.LASFDE76:
	.4byte	.Lframe0
	.4byte	.LFB203
	.4byte	.LFE203-.LFB203
	.byte	0x4
	.4byte	.LCFI97-.LFB203
	.byte	0xe
	.uleb128 0x8
	.byte	0x83
	.uleb128 0x2
	.byte	0x8e
	.uleb128 0x1
	.align	2
.LEFDE76:
.LSFDE78:
	.4byte	.LEFDE78-.LASFDE78
.LASFDE78:
	.4byte	.Lframe0
	.4byte	.LFB204
	.4byte	.LFE204-.LFB204
	.byte	0x4
	.4byte	.LCFI98-.LFB204
	.byte	0xe
	.uleb128 0x8
	.byte	0x83
	.uleb128 0x2
	.byte	0x8e
	.uleb128 0x1
	.align	2
.LEFDE78:
.LSFDE80:
	.4byte	.LEFDE80-.LASFDE80
.LASFDE80:
	.4byte	.Lframe0
	.4byte	.LFB205
	.4byte	.LFE205-.LFB205
	.byte	0x4
	.4byte	.LCFI99-.LFB205
	.byte	0xe
	.uleb128 0x8
	.byte	0x83
	.uleb128 0x2
	.byte	0x8e
	.uleb128 0x1
	.align	2
.LEFDE80:
	.text
.Letext0:
	.file 6 "D:/Program Files/SEGGER/SEGGER Embedded Studio for ARM 4.30/include/stdint.h"
	.file 7 "D:/Program Files/SEGGER/SEGGER Embedded Studio for ARM 4.30/include/__crossworks.h"
	.file 8 "D:/Program Files/SEGGER/SEGGER Embedded Studio for ARM 4.30/include/string.h"
	.file 9 "./MIMXRT1052/CMSIS/Device/Include/MIMXRT1052.h"
	.file 10 "./MIMXRT1052/CMSIS/Device/Include/system_MIMXRT1052.h"